00000000  55                push ebp
00000001  8B0DCC504000      mov ecx,[dword 0x4050cc]
00000007  89E5              mov ebp,esp
00000009  5D                pop ebp
0000000A  FFE1              jmp ecx
0000000C  8D742600          lea esi,[esi+0x0]
00000010  55                push ebp
00000011  8B0DC4504000      mov ecx,[dword 0x4050c4]
00000017  89E5              mov ebp,esp
00000019  5D                pop ebp
0000001A  FFE1              jmp ecx
0000001C  8D742600          lea esi,[esi+0x0]
00000020  55                push ebp
00000021  89E5              mov ebp,esp
00000023  53                push ebx
00000024  83EC20            sub esp,byte +0x20
00000027  6850114000        push dword 0x401150
0000002C  E8B3070000        call dword 0x7e4
00000031  83C40C            add esp,byte +0xc
00000034  E8CB050000        call dword 0x604
00000039  E8D6060000        call dword 0x714
0000003E  83EC0C            sub esp,byte +0xc
00000041  8D45F4            lea eax,[ebp-0xc]
00000044  C745F400000000    mov dword [ebp-0xc],0x0
0000004B  50                push eax
0000004C  8D45F8            lea eax,[ebp-0x8]
0000004F  8B1D40244000      mov ebx,[dword 0x402440]
00000055  53                push ebx
00000056  50                push eax
00000057  6804404000        push dword 0x404004
0000005C  6800404000        push dword 0x404000
00000061  E8EE060000        call dword 0x754
00000066  A110404000        mov eax,[0x404010]
0000006B  83C420            add esp,byte +0x20
0000006E  85C0              test eax,eax
00000070  7544              jnz 0xb6
00000072  E8FD060000        call dword 0x774
00000077  8B1550244000      mov edx,[dword 0x402450]
0000007D  8910              mov [eax],edx
0000007F  E8A0060000        call dword 0x724
00000084  83E4F0            and esp,byte -0x10
00000087  E894020000        call dword 0x320
0000008C  E803070000        call dword 0x794
00000091  53                push ebx
00000092  8B08              mov ecx,[eax]
00000094  51                push ecx
00000095  8B1504404000      mov edx,[dword 0x404004]
0000009B  52                push edx
0000009C  A100404000        mov eax,[0x404000]
000000A1  50                push eax
000000A2  E851040000        call dword 0x4f8
000000A7  89C3              mov ebx,eax
000000A9  E8F6060000        call dword 0x7a4
000000AE  891C24            mov [esp],ebx
000000B1  E83E070000        call dword 0x7f4
000000B6  8B1DC0504000      mov ebx,[dword 0x4050c0]
000000BC  A350244000        mov [0x402450],eax
000000C1  51                push ecx
000000C2  51                push ecx
000000C3  50                push eax
000000C4  8B5310            mov edx,[ebx+0x10]
000000C7  52                push edx
000000C8  E897060000        call dword 0x764
000000CD  83C410            add esp,byte +0x10
000000D0  83FBE0            cmp ebx,byte -0x20
000000D3  7419              jz 0xee
000000D5  50                push eax
000000D6  50                push eax
000000D7  A110404000        mov eax,[0x404010]
000000DC  50                push eax
000000DD  8B4330            mov eax,[ebx+0x30]
000000E0  50                push eax
000000E1  E87E060000        call dword 0x764
000000E6  83C410            add esp,byte +0x10
000000E9  83FBC0            cmp ebx,byte -0x40
000000EC  7484              jz 0x72
000000EE  50                push eax
000000EF  50                push eax
000000F0  A110404000        mov eax,[0x404010]
000000F5  50                push eax
000000F6  8B4350            mov eax,[ebx+0x50]
000000F9  50                push eax
000000FA  E865060000        call dword 0x764
000000FF  83C410            add esp,byte +0x10
00000102  E96BFFFFFF        jmp dword 0x72
00000107  89F6              mov esi,esi
00000109  8DBC2700000000    lea edi,[edi+0x0]
00000110  55                push ebp
00000111  89E5              mov ebp,esp
00000113  83EC14            sub esp,byte +0x14
00000116  6A02              push byte +0x2
00000118  FF15B8504000      call dword [dword 0x4050b8]
0000011E  E8FDFEFFFF        call dword 0x20
00000123  8DB600000000      lea esi,[esi+0x0]
00000129  8DBC2700000000    lea edi,[edi+0x0]
00000130  55                push ebp
00000131  89E5              mov ebp,esp
00000133  83EC14            sub esp,byte +0x14
00000136  6A01              push byte +0x1
00000138  FF15B8504000      call dword [dword 0x4050b8]
0000013E  E8DDFEFFFF        call dword 0x20
00000143  8DB600000000      lea esi,[esi+0x0]
00000149  8DBC2700000000    lea edi,[edi+0x0]
00000150  55                push ebp
00000151  89E5              mov ebp,esp
00000153  53                push ebx
00000154  83EC04            sub esp,byte +0x4
00000157  8B4508            mov eax,[ebp+0x8]
0000015A  8B00              mov eax,[eax]
0000015C  8B00              mov eax,[eax]
0000015E  3D910000C0        cmp eax,0xc0000091
00000163  773B              ja 0x1a0
00000165  3D8D0000C0        cmp eax,0xc000008d
0000016A  724B              jc 0x1b7
0000016C  BB01000000        mov ebx,0x1
00000171  50                push eax
00000172  50                push eax
00000173  6A00              push byte +0x0
00000175  6A08              push byte +0x8
00000177  E808060000        call dword 0x784
0000017C  83C410            add esp,byte +0x10
0000017F  83F801            cmp eax,byte +0x1
00000182  0F84D6000000      jz dword 0x25e
00000188  85C0              test eax,eax
0000018A  0F8590000000      jnz dword 0x220
00000190  31C0              xor eax,eax
00000192  8B5DFC            mov ebx,[ebp-0x4]
00000195  C9                leave
00000196  C20400            ret 0x4
00000199  8DB42600000000    lea esi,[esi+0x0]
000001A0  3D940000C0        cmp eax,0xc0000094
000001A5  7449              jz 0x1f0
000001A7  3D960000C0        cmp eax,0xc0000096
000001AC  7417              jz 0x1c5
000001AE  3D930000C0        cmp eax,0xc0000093
000001B3  75DB              jnz 0x190
000001B5  EBB5              jmp short 0x16c
000001B7  3D050000C0        cmp eax,0xc0000005
000001BC  7439              jz 0x1f7
000001BE  3D1D0000C0        cmp eax,0xc000001d
000001C3  75CB              jnz 0x190
000001C5  50                push eax
000001C6  50                push eax
000001C7  6A00              push byte +0x0
000001C9  6A04              push byte +0x4
000001CB  E8B4050000        call dword 0x784
000001D0  83C410            add esp,byte +0x10
000001D3  83F801            cmp eax,byte +0x1
000001D6  745A              jz 0x232
000001D8  85C0              test eax,eax
000001DA  74B4              jz 0x190
000001DC  83EC0C            sub esp,byte +0xc
000001DF  6A04              push byte +0x4
000001E1  FFD0              call eax
000001E3  83C8FF            or eax,byte -0x1
000001E6  83C410            add esp,byte +0x10
000001E9  EBA7              jmp short 0x192
000001EB  90                nop
000001EC  8D742600          lea esi,[esi+0x0]
000001F0  31DB              xor ebx,ebx
000001F2  E97AFFFFFF        jmp dword 0x171
000001F7  50                push eax
000001F8  50                push eax
000001F9  6A00              push byte +0x0
000001FB  6A0B              push byte +0xb
000001FD  E882050000        call dword 0x784
00000202  83C410            add esp,byte +0x10
00000205  83F801            cmp eax,byte +0x1
00000208  743E              jz 0x248
0000020A  85C0              test eax,eax
0000020C  7482              jz 0x190
0000020E  83EC0C            sub esp,byte +0xc
00000211  6A0B              push byte +0xb
00000213  FFD0              call eax
00000215  83C8FF            or eax,byte -0x1
00000218  83C410            add esp,byte +0x10
0000021B  E972FFFFFF        jmp dword 0x192
00000220  83EC0C            sub esp,byte +0xc
00000223  6A08              push byte +0x8
00000225  FFD0              call eax
00000227  83C8FF            or eax,byte -0x1
0000022A  83C410            add esp,byte +0x10
0000022D  E960FFFFFF        jmp dword 0x192
00000232  50                push eax
00000233  50                push eax
00000234  6A01              push byte +0x1
00000236  6A04              push byte +0x4
00000238  E847050000        call dword 0x784
0000023D  83C8FF            or eax,byte -0x1
00000240  83C410            add esp,byte +0x10
00000243  E94AFFFFFF        jmp dword 0x192
00000248  50                push eax
00000249  50                push eax
0000024A  6A01              push byte +0x1
0000024C  6A0B              push byte +0xb
0000024E  E831050000        call dword 0x784
00000253  83C8FF            or eax,byte -0x1
00000256  83C410            add esp,byte +0x10
00000259  E934FFFFFF        jmp dword 0x192
0000025E  50                push eax
0000025F  50                push eax
00000260  6A01              push byte +0x1
00000262  6A08              push byte +0x8
00000264  E81B050000        call dword 0x784
00000269  83C410            add esp,byte +0x10
0000026C  83C8FF            or eax,byte -0x1
0000026F  85DB              test ebx,ebx
00000271  0F841BFFFFFF      jz dword 0x192
00000277  E898040000        call dword 0x714
0000027C  83C8FF            or eax,byte -0x1
0000027F  E90EFFFFFF        jmp dword 0x192
00000284  90                nop
00000285  90                nop
00000286  90                nop
00000287  90                nop
00000288  90                nop
00000289  90                nop
0000028A  90                nop
0000028B  90                nop
0000028C  90                nop
0000028D  90                nop
0000028E  90                nop
0000028F  90                nop
00000290  55                push ebp
00000291  89E5              mov ebp,esp
00000293  83EC08            sub esp,byte +0x8
00000296  A160244000        mov eax,[0x402460]
0000029B  85C0              test eax,eax
0000029D  743B              jz 0x2da
0000029F  83EC0C            sub esp,byte +0xc
000002A2  6800304000        push dword 0x403000
000002A7  E858050000        call dword 0x804
000002AC  89C2              mov edx,eax
000002AE  83C40C            add esp,byte +0xc
000002B1  B800000000        mov eax,0x0
000002B6  85D2              test edx,edx
000002B8  740F              jz 0x2c9
000002BA  50                push eax
000002BB  50                push eax
000002BC  680D304000        push dword 0x40300d
000002C1  52                push edx
000002C2  E84D050000        call dword 0x814
000002C7  5A                pop edx
000002C8  59                pop ecx
000002C9  85C0              test eax,eax
000002CB  740D              jz 0x2da
000002CD  83EC0C            sub esp,byte +0xc
000002D0  6860244000        push dword 0x402460
000002D5  FFD0              call eax
000002D7  83C410            add esp,byte +0x10
000002DA  C9                leave
000002DB  C3                ret
000002DC  8D742600          lea esi,[esi+0x0]
000002E0  55                push ebp
000002E1  89E5              mov ebp,esp
000002E3  5D                pop ebp
000002E4  C3                ret
000002E5  8D742600          lea esi,[esi+0x0]
000002E9  8DBC2700000000    lea edi,[edi+0x0]
000002F0  55                push ebp
000002F1  89E5              mov ebp,esp
000002F3  83EC08            sub esp,byte +0x8
000002F6  A104204000        mov eax,[0x402004]
000002FB  8B00              mov eax,[eax]
000002FD  85C0              test eax,eax
000002FF  7415              jz 0x316
00000301  FFD0              call eax
00000303  A104204000        mov eax,[0x402004]
00000308  83C004            add eax,byte +0x4
0000030B  A304204000        mov [0x402004],eax
00000310  8B00              mov eax,[eax]
00000312  85C0              test eax,eax
00000314  75EB              jnz 0x301
00000316  C9                leave
00000317  C3                ret
00000318  90                nop
00000319  8DB42600000000    lea esi,[esi+0x0]
00000320  55                push ebp
00000321  89E5              mov ebp,esp
00000323  56                push esi
00000324  53                push ebx
00000325  8B0D00204000      mov ecx,[dword 0x402000]
0000032B  85C9              test ecx,ecx
0000032D  7407              jz 0x336
0000032F  8D65F8            lea esp,[ebp-0x8]
00000332  5B                pop ebx
00000333  5E                pop esi
00000334  5D                pop ebp
00000335  C3                ret
00000336  8B1D24184000      mov ebx,[dword 0x401824]
0000033C  C705002040000100  mov dword [dword 0x402000],0x1
         -0000
00000346  E845FFFFFF        call dword 0x290
0000034B  83FBFF            cmp ebx,byte -0x1
0000034E  742F              jz 0x37f
00000350  85DB              test ebx,ebx
00000352  7414              jz 0x368
00000354  8D349D24184000    lea esi,[ebx*4+0x401824]
0000035B  90                nop
0000035C  8D742600          lea esi,[esi+0x0]
00000360  FF16              call dword [esi]
00000362  83EE04            sub esi,byte +0x4
00000365  4B                dec ebx
00000366  75F8              jnz 0x360
00000368  83EC0C            sub esp,byte +0xc
0000036B  68F0124000        push dword 0x4012f0
00000370  E88BFCFFFF        call dword 0x0
00000375  83C410            add esp,byte +0x10
00000378  8D65F8            lea esp,[ebp-0x8]
0000037B  5B                pop ebx
0000037C  5E                pop esi
0000037D  5D                pop ebp
0000037E  C3                ret
0000037F  31DB              xor ebx,ebx
00000381  EB02              jmp short 0x385
00000383  89C3              mov ebx,eax
00000385  8D4301            lea eax,[ebx+0x1]
00000388  8B148524184000    mov edx,[eax*4+0x401824]
0000038F  85D2              test edx,edx
00000391  75F0              jnz 0x383
00000393  EBBB              jmp short 0x350
00000395  90                nop
00000396  90                nop
00000397  90                nop
00000398  90                nop
00000399  90                nop
0000039A  90                nop
0000039B  90                nop
0000039C  90                nop
0000039D  90                nop
0000039E  90                nop
0000039F  90                nop
000003A0  55                push ebp
000003A1  89E5              mov ebp,esp
000003A3  53                push ebx
000003A4  83EC14            sub esp,byte +0x14
000003A7  C745F800000000    mov dword [ebp-0x8],0x0
000003AE  EB4B              jmp short 0x3fb
000003B0  8B45F8            mov eax,[ebp-0x8]
000003B3  034508            add eax,[ebp+0x8]
000003B6  8A00              mov al,[eax]
000003B8  3C20              cmp al,0x20
000003BA  7E3C              jng 0x3f8
000003BC  8B45F8            mov eax,[ebp-0x8]
000003BF  034508            add eax,[ebp+0x8]
000003C2  8A00              mov al,[eax]
000003C4  3C7F              cmp al,0x7f
000003C6  7430              jz 0x3f8
000003C8  8B45F8            mov eax,[ebp-0x8]
000003CB  89C3              mov ebx,eax
000003CD  035D08            add ebx,[ebp+0x8]
000003D0  8B45F8            mov eax,[ebp-0x8]
000003D3  034508            add eax,[ebp+0x8]
000003D6  8A00              mov al,[eax]
000003D8  0FBEC0            movsx eax,al
000003DB  8D501A            lea edx,[eax+0x1a]
000003DE  89D0              mov eax,edx
000003E0  C1F81F            sar eax,byte 0x1f
000003E3  89C1              mov ecx,eax
000003E5  C1E91A            shr ecx,byte 0x1a
000003E8  8D040A            lea eax,[edx+ecx]
000003EB  83E03F            and eax,byte +0x3f
000003EE  29C8              sub eax,ecx
000003F0  88C2              mov dl,al
000003F2  B020              mov al,0x20
000003F4  28D0              sub al,dl
000003F6  8803              mov [ebx],al
000003F8  FF45F8            inc dword [ebp-0x8]
000003FB  8B5DF8            mov ebx,[ebp-0x8]
000003FE  83EC0C            sub esp,byte +0xc
00000401  FF7508            push dword [ebp+0x8]
00000404  E8BB030000        call dword 0x7c4
00000409  83C410            add esp,byte +0x10
0000040C  39C3              cmp ebx,eax
0000040E  72A0              jc 0x3b0
00000410  8B5DFC            mov ebx,[ebp-0x4]
00000413  C9                leave
00000414  C3                ret
00000415  90                nop
00000416  55                push ebp
00000417  89E5              mov ebp,esp
00000419  53                push ebx
0000041A  83EC14            sub esp,byte +0x14
0000041D  C745F800000000    mov dword [ebp-0x8],0x0
00000424  EB48              jmp short 0x46e
00000426  8B45F8            mov eax,[ebp-0x8]
00000429  034508            add eax,[ebp+0x8]
0000042C  8A00              mov al,[eax]
0000042E  3C20              cmp al,0x20
00000430  7E39              jng 0x46b
00000432  8B45F8            mov eax,[ebp-0x8]
00000435  034508            add eax,[ebp+0x8]
00000438  8A00              mov al,[eax]
0000043A  3C7F              cmp al,0x7f
0000043C  742D              jz 0x46b
0000043E  8B45F8            mov eax,[ebp-0x8]
00000441  89C3              mov ebx,eax
00000443  035D08            add ebx,[ebp+0x8]
00000446  8B45F8            mov eax,[ebp-0x8]
00000449  034508            add eax,[ebp+0x8]
0000044C  8A00              mov al,[eax]
0000044E  0FBEC0            movsx eax,al
00000451  8D500D            lea edx,[eax+0xd]
00000454  89D0              mov eax,edx
00000456  C1F81F            sar eax,byte 0x1f
00000459  89C1              mov ecx,eax
0000045B  C1E919            shr ecx,byte 0x19
0000045E  8D040A            lea eax,[edx+ecx]
00000461  83E07F            and eax,byte +0x7f
00000464  29C8              sub eax,ecx
00000466  83C00F            add eax,byte +0xf
00000469  8803              mov [ebx],al
0000046B  FF45F8            inc dword [ebp-0x8]
0000046E  8B5DF8            mov ebx,[ebp-0x8]
00000471  83EC0C            sub esp,byte +0xc
00000474  FF7508            push dword [ebp+0x8]
00000477  E848030000        call dword 0x7c4
0000047C  83C410            add esp,byte +0x10
0000047F  39C3              cmp ebx,eax
00000481  72A3              jc 0x426
00000483  8B5DFC            mov ebx,[ebp-0x4]
00000486  C9                leave
00000487  C3                ret
00000488  55                push ebp
00000489  89E5              mov ebp,esp
0000048B  53                push ebx
0000048C  83EC14            sub esp,byte +0x14
0000048F  C745F800000000    mov dword [ebp-0x8],0x0
00000496  EB46              jmp short 0x4de
00000498  8B45F8            mov eax,[ebp-0x8]
0000049B  034508            add eax,[ebp+0x8]
0000049E  8A00              mov al,[eax]
000004A0  3C20              cmp al,0x20
000004A2  7E37              jng 0x4db
000004A4  8B45F8            mov eax,[ebp-0x8]
000004A7  034508            add eax,[ebp+0x8]
000004AA  8A00              mov al,[eax]
000004AC  3C7F              cmp al,0x7f
000004AE  742B              jz 0x4db
000004B0  8B45F8            mov eax,[ebp-0x8]
000004B3  89C1              mov ecx,eax
000004B5  034D08            add ecx,[ebp+0x8]
000004B8  8B45F8            mov eax,[ebp-0x8]
000004BB  034508            add eax,[ebp+0x8]
000004BE  8A00              mov al,[eax]
000004C0  0FBEC0            movsx eax,al
000004C3  8D500E            lea edx,[eax+0xe]
000004C6  B85E000000        mov eax,0x5e
000004CB  89C3              mov ebx,eax
000004CD  89D0              mov eax,edx
000004CF  C1FA1F            sar edx,byte 0x1f
000004D2  F7FB              idiv ebx
000004D4  89D0              mov eax,edx
000004D6  83C021            add eax,byte +0x21
000004D9  8801              mov [ecx],al
000004DB  FF45F8            inc dword [ebp-0x8]
000004DE  8B5DF8            mov ebx,[ebp-0x8]
000004E1  83EC0C            sub esp,byte +0xc
000004E4  FF7508            push dword [ebp+0x8]
000004E7  E8D8020000        call dword 0x7c4
000004EC  83C410            add esp,byte +0x10
000004EF  39C3              cmp ebx,eax
000004F1  72A5              jc 0x498
000004F3  8B5DFC            mov ebx,[ebp-0x4]
000004F6  C9                leave
000004F7  C3                ret
000004F8  8D4C2404          lea ecx,[esp+0x4]
000004FC  83E4F0            and esp,byte -0x10
000004FF  FF71FC            push dword [ecx-0x4]
00000502  55                push ebp
00000503  89E5              mov ebp,esp
00000505  53                push ebx
00000506  51                push ecx
00000507  89CB              mov ebx,ecx
00000509  E812FEFFFF        call dword 0x320
0000050E  8B4304            mov eax,[ebx+0x4]
00000511  8B00              mov eax,[eax]
00000513  83EC0C            sub esp,byte +0xc
00000516  50                push eax
00000517  E86CFFFFFF        call dword 0x488
0000051C  83C410            add esp,byte +0x10
0000051F  8B4304            mov eax,[ebx+0x4]
00000522  8B00              mov eax,[eax]
00000524  83EC08            sub esp,byte +0x8
00000527  6879214000        push dword 0x402179
0000052C  50                push eax
0000052D  E8A2020000        call dword 0x7d4
00000532  83C410            add esp,byte +0x10
00000535  85C0              test eax,eax
00000537  7522              jnz 0x55b
00000539  83EC0C            sub esp,byte +0xc
0000053C  6820234000        push dword 0x402320
00000541  E842FFFFFF        call dword 0x488
00000546  83C410            add esp,byte +0x10
00000549  83EC0C            sub esp,byte +0xc
0000054C  6820234000        push dword 0x402320
00000551  E85E020000        call dword 0x7b4
00000556  83C410            add esp,byte +0x10
00000559  EB20              jmp short 0x57b
0000055B  83EC0C            sub esp,byte +0xc
0000055E  6800244000        push dword 0x402400
00000563  E820FFFFFF        call dword 0x488
00000568  83C410            add esp,byte +0x10
0000056B  83EC0C            sub esp,byte +0xc
0000056E  6800244000        push dword 0x402400
00000573  E83C020000        call dword 0x7b4
00000578  83C410            add esp,byte +0x10
0000057B  B800000000        mov eax,0x0
00000580  8D65F8            lea esp,[ebp-0x8]
00000583  59                pop ecx
00000584  5B                pop ebx
00000585  5D                pop ebp
00000586  8D61FC            lea esp,[ecx-0x4]
00000589  C3                ret
0000058A  55                push ebp
0000058B  89E5              mov ebp,esp
0000058D  53                push ebx
0000058E  83EC14            sub esp,byte +0x14
00000591  C745F800000000    mov dword [ebp-0x8],0x0
00000598  EB4E              jmp short 0x5e8
0000059A  8B45F8            mov eax,[ebp-0x8]
0000059D  034508            add eax,[ebp+0x8]
000005A0  8A00              mov al,[eax]
000005A2  3C20              cmp al,0x20
000005A4  7E3F              jng 0x5e5
000005A6  8B45F8            mov eax,[ebp-0x8]
000005A9  034508            add eax,[ebp+0x8]
000005AC  8A00              mov al,[eax]
000005AE  3C7F              cmp al,0x7f
000005B0  7433              jz 0x5e5
000005B2  8B45F8            mov eax,[ebp-0x8]
000005B5  89C3              mov ebx,eax
000005B7  035D08            add ebx,[ebp+0x8]
000005BA  8B45F8            mov eax,[ebp-0x8]
000005BD  034508            add eax,[ebp+0x8]
000005C0  8A00              mov al,[eax]
000005C2  83F029            xor eax,byte +0x29
000005C5  0FBEC0            movsx eax,al
000005C8  8D501A            lea edx,[eax+0x1a]
000005CB  89D0              mov eax,edx
000005CD  C1F81F            sar eax,byte 0x1f
000005D0  89C1              mov ecx,eax
000005D2  C1E91A            shr ecx,byte 0x1a
000005D5  8D040A            lea eax,[edx+ecx]
000005D8  83E03F            and eax,byte +0x3f
000005DB  29C8              sub eax,ecx
000005DD  88C2              mov dl,al
000005DF  B020              mov al,0x20
000005E1  28D0              sub al,dl
000005E3  8803              mov [ebx],al
000005E5  FF45F8            inc dword [ebp-0x8]
000005E8  8B5DF8            mov ebx,[ebp-0x8]
000005EB  83EC0C            sub esp,byte +0xc
000005EE  FF7508            push dword [ebp+0x8]
000005F1  E8CE010000        call dword 0x7c4
000005F6  83C410            add esp,byte +0x10
000005F9  39C3              cmp ebx,eax
000005FB  729D              jc 0x59a
000005FD  8B5DFC            mov ebx,[ebp-0x4]
00000600  C9                leave
00000601  C3                ret
00000602  90                nop
00000603  90                nop
00000604  55                push ebp
00000605  89E5              mov ebp,esp
00000607  53                push ebx
00000608  9C                pushfd
00000609  9C                pushfd
0000060A  5A                pop edx
0000060B  89D0              mov eax,edx
0000060D  81F200002000      xor edx,0x200000
00000613  52                push edx
00000614  9D                popfd
00000615  9C                pushfd
00000616  5A                pop edx
00000617  9D                popfd
00000618  31D0              xor eax,edx
0000061A  A900002000        test eax,0x200000
0000061F  0F84E4000000      jz dword 0x709
00000625  31C0              xor eax,eax
00000627  0FA2              cpuid
00000629  85C0              test eax,eax
0000062B  0F84D8000000      jz dword 0x709
00000631  B801000000        mov eax,0x1
00000636  0FA2              cpuid
00000638  F6C601            test dh,0x1
0000063B  740D              jz 0x64a
0000063D  A120404000        mov eax,[0x404020]
00000642  83C801            or eax,byte +0x1
00000645  A320404000        mov [0x404020],eax
0000064A  6685D2            test dx,dx
0000064D  790D              jns 0x65c
0000064F  A120404000        mov eax,[0x404020]
00000654  83C802            or eax,byte +0x2
00000657  A320404000        mov [0x404020],eax
0000065C  F7C200008000      test edx,0x800000
00000662  740D              jz 0x671
00000664  A120404000        mov eax,[0x404020]
00000669  83C804            or eax,byte +0x4
0000066C  A320404000        mov [0x404020],eax
00000671  F7C200000001      test edx,0x1000000
00000677  740D              jz 0x686
00000679  A120404000        mov eax,[0x404020]
0000067E  83C808            or eax,byte +0x8
00000681  A320404000        mov [0x404020],eax
00000686  F7C200000002      test edx,0x2000000
0000068C  740D              jz 0x69b
0000068E  A120404000        mov eax,[0x404020]
00000693  83C810            or eax,byte +0x10
00000696  A320404000        mov [0x404020],eax
0000069B  81E200000004      and edx,0x4000000
000006A1  740F              jz 0x6b2
000006A3  8B1D20404000      mov ebx,[dword 0x404020]
000006A9  83CB20            or ebx,byte +0x20
000006AC  891D20404000      mov [dword 0x404020],ebx
000006B2  F6C101            test cl,0x1
000006B5  740F              jz 0x6c6
000006B7  8B1520404000      mov edx,[dword 0x404020]
000006BD  83CA40            or edx,byte +0x40
000006C0  891520404000      mov [dword 0x404020],edx
000006C6  80E520            and ch,0x20
000006C9  740C              jz 0x6d7
000006CB  A120404000        mov eax,[0x404020]
000006D0  0C80              or al,0x80
000006D2  A320404000        mov [0x404020],eax
000006D7  B800000080        mov eax,0x80000000
000006DC  0FA2              cpuid
000006DE  3D00000080        cmp eax,0x80000000
000006E3  7624              jna 0x709
000006E5  B801000080        mov eax,0x80000001
000006EA  0FA2              cpuid
000006EC  A120404000        mov eax,[0x404020]
000006F1  80CC01            or ah,0x1
000006F4  81E200000040      and edx,0x40000000
000006FA  A320404000        mov [0x404020],eax
000006FF  7408              jz 0x709
00000701  80CC02            or ah,0x2
00000704  A320404000        mov [0x404020],eax
00000709  5B                pop ebx
0000070A  5D                pop ebp
0000070B  C3                ret
0000070C  90                nop
0000070D  90                nop
0000070E  90                nop
0000070F  90                nop
00000710  90                nop
00000711  90                nop
00000712  90                nop
00000713  90                nop
00000714  55                push ebp
00000715  89E5              mov ebp,esp
00000717  DBE3              fninit
00000719  5D                pop ebp
0000071A  C3                ret
0000071B  90                nop
0000071C  90                nop
0000071D  90                nop
0000071E  90                nop
0000071F  90                nop
00000720  90                nop
00000721  90                nop
00000722  90                nop
00000723  90                nop
00000724  55                push ebp
00000725  B924304000        mov ecx,0x403024
0000072A  89E5              mov ebp,esp
0000072C  81F924304000      cmp ecx,0x403024
00000732  7318              jnc 0x74c
00000734  8B5104            mov edx,[ecx+0x4]
00000737  8B01              mov eax,[ecx]
00000739  81C200004000      add edx,0x400000
0000073F  83C108            add ecx,byte +0x8
00000742  0102              add [edx],eax
00000744  81F924304000      cmp ecx,0x403024
0000074A  72E8              jc 0x734
0000074C  5D                pop ebp
0000074D  C3                ret
0000074E  90                nop
0000074F  90                nop
00000750  90                nop
00000751  90                nop
00000752  90                nop
00000753  90                nop
00000754  FF25AC504000      jmp dword [dword 0x4050ac]
0000075A  90                nop
0000075B  90                nop
0000075C  0000              add [eax],al
0000075E  0000              add [eax],al
00000760  0000              add [eax],al
00000762  0000              add [eax],al
00000764  FF25C8504000      jmp dword [dword 0x4050c8]
0000076A  90                nop
0000076B  90                nop
0000076C  0000              add [eax],al
0000076E  0000              add [eax],al
00000770  0000              add [eax],al
00000772  0000              add [eax],al
00000774  FF25B4504000      jmp dword [dword 0x4050b4]
0000077A  90                nop
0000077B  90                nop
0000077C  0000              add [eax],al
0000077E  0000              add [eax],al
00000780  0000              add [eax],al
00000782  0000              add [eax],al
00000784  FF25D4504000      jmp dword [dword 0x4050d4]
0000078A  90                nop
0000078B  90                nop
0000078C  0000              add [eax],al
0000078E  0000              add [eax],al
00000790  0000              add [eax],al
00000792  0000              add [eax],al
00000794  FF25B0504000      jmp dword [dword 0x4050b0]
0000079A  90                nop
0000079B  90                nop
0000079C  0000              add [eax],al
0000079E  0000              add [eax],al
000007A0  0000              add [eax],al
000007A2  0000              add [eax],al
000007A4  FF25BC504000      jmp dword [dword 0x4050bc]
000007AA  90                nop
000007AB  90                nop
000007AC  0000              add [eax],al
000007AE  0000              add [eax],al
000007B0  0000              add [eax],al
000007B2  0000              add [eax],al
000007B4  FF25D0504000      jmp dword [dword 0x4050d0]
000007BA  90                nop
000007BB  90                nop
000007BC  0000              add [eax],al
000007BE  0000              add [eax],al
000007C0  0000              add [eax],al
000007C2  0000              add [eax],al
000007C4  FF25DC504000      jmp dword [dword 0x4050dc]
000007CA  90                nop
000007CB  90                nop
000007CC  0000              add [eax],al
000007CE  0000              add [eax],al
000007D0  0000              add [eax],al
000007D2  0000              add [eax],al
000007D4  FF25D8504000      jmp dword [dword 0x4050d8]
000007DA  90                nop
000007DB  90                nop
000007DC  0000              add [eax],al
000007DE  0000              add [eax],al
000007E0  0000              add [eax],al
000007E2  0000              add [eax],al
000007E4  FF25A0504000      jmp dword [dword 0x4050a0]
000007EA  90                nop
000007EB  90                nop
000007EC  0000              add [eax],al
000007EE  0000              add [eax],al
000007F0  0000              add [eax],al
000007F2  0000              add [eax],al
000007F4  FF2594504000      jmp dword [dword 0x405094]
000007FA  90                nop
000007FB  90                nop
000007FC  0000              add [eax],al
000007FE  0000              add [eax],al
00000800  0000              add [eax],al
00000802  0000              add [eax],al
00000804  FF2598504000      jmp dword [dword 0x405098]
0000080A  90                nop
0000080B  90                nop
0000080C  0000              add [eax],al
0000080E  0000              add [eax],al
00000810  0000              add [eax],al
00000812  0000              add [eax],al
00000814  FF259C504000      jmp dword [dword 0x40509c]
0000081A  90                nop
0000081B  90                nop
0000081C  0000              add [eax],al
0000081E  0000              add [eax],al
00000820  0000              add [eax],al
00000822  0000              add [eax],al
00000824  FF                db 0xff
00000825  FF                db 0xff
00000826  FF                db 0xff
00000827  FF00              inc dword [eax]
00000829  0000              add [eax],al
0000082B  00FF              add bh,bh
0000082D  FF                db 0xff
0000082E  FF                db 0xff
0000082F  FF                db 0xff
