
Comparator_orig:     format de fichier elf32-i386


Déassemblage de la section .init:

08048a84 <_init>:
 8048a84:	55                   	push   %ebp
 8048a85:	89 e5                	mov    %esp,%ebp
 8048a87:	53                   	push   %ebx
 8048a88:	83 ec 04             	sub    $0x4,%esp
 8048a8b:	e8 00 00 00 00       	call   8048a90 <_init+0xc>
 8048a90:	5b                   	pop    %ebx
 8048a91:	81 c3 54 3b 00 00    	add    $0x3b54,%ebx
 8048a97:	8b 93 fc ff ff ff    	mov    -0x4(%ebx),%edx
 8048a9d:	85 d2                	test   %edx,%edx
 8048a9f:	74 05                	je     8048aa6 <_init+0x22>
 8048aa1:	e8 5a 00 00 00       	call   8048b00 <__gmon_start__@plt>
 8048aa6:	58                   	pop    %eax
 8048aa7:	5b                   	pop    %ebx
 8048aa8:	c9                   	leave  
 8048aa9:	c3                   	ret    

Déassemblage de la section .plt:

08048ab0 <_ZSt20__throw_length_errorPKc@plt-0x10>:
 8048ab0:	ff 35 e8 c5 04 08    	pushl  0x804c5e8
 8048ab6:	ff 25 ec c5 04 08    	jmp    *0x804c5ec
 8048abc:	00 00                	add    %al,(%eax)
	...

08048ac0 <_ZSt20__throw_length_errorPKc@plt>:
 8048ac0:	ff 25 f0 c5 04 08    	jmp    *0x804c5f0
 8048ac6:	68 00 00 00 00       	push   $0x0
 8048acb:	e9 e0 ff ff ff       	jmp    8048ab0 <_init+0x2c>

08048ad0 <sprintf@plt>:
 8048ad0:	ff 25 f4 c5 04 08    	jmp    *0x804c5f4
 8048ad6:	68 08 00 00 00       	push   $0x8
 8048adb:	e9 d0 ff ff ff       	jmp    8048ab0 <_init+0x2c>

08048ae0 <__cxa_atexit@plt>:
 8048ae0:	ff 25 f8 c5 04 08    	jmp    *0x804c5f8
 8048ae6:	68 10 00 00 00       	push   $0x10
 8048aeb:	e9 c0 ff ff ff       	jmp    8048ab0 <_init+0x2c>

08048af0 <__xstat@plt>:
 8048af0:	ff 25 fc c5 04 08    	jmp    *0x804c5fc
 8048af6:	68 18 00 00 00       	push   $0x18
 8048afb:	e9 b0 ff ff ff       	jmp    8048ab0 <_init+0x2c>

08048b00 <__gmon_start__@plt>:
 8048b00:	ff 25 00 c6 04 08    	jmp    *0x804c600
 8048b06:	68 20 00 00 00       	push   $0x20
 8048b0b:	e9 a0 ff ff ff       	jmp    8048ab0 <_init+0x2c>

08048b10 <_ZdlPv@plt>:
 8048b10:	ff 25 04 c6 04 08    	jmp    *0x804c604
 8048b16:	68 28 00 00 00       	push   $0x28
 8048b1b:	e9 90 ff ff ff       	jmp    8048ab0 <_init+0x2c>

08048b20 <__cxa_rethrow@plt>:
 8048b20:	ff 25 08 c6 04 08    	jmp    *0x804c608
 8048b26:	68 30 00 00 00       	push   $0x30
 8048b2b:	e9 80 ff ff ff       	jmp    8048ab0 <_init+0x2c>

08048b30 <_ZNSt8ios_base4InitC1Ev@plt>:
 8048b30:	ff 25 0c c6 04 08    	jmp    *0x804c60c
 8048b36:	68 38 00 00 00       	push   $0x38
 8048b3b:	e9 70 ff ff ff       	jmp    8048ab0 <_init+0x2c>

08048b40 <__libc_start_main@plt>:
 8048b40:	ff 25 10 c6 04 08    	jmp    *0x804c610
 8048b46:	68 40 00 00 00       	push   $0x40
 8048b4b:	e9 60 ff ff ff       	jmp    8048ab0 <_init+0x2c>

08048b50 <_ZNSt8ios_base4InitD1Ev@plt>:
 8048b50:	ff 25 14 c6 04 08    	jmp    *0x804c614
 8048b56:	68 48 00 00 00       	push   $0x48
 8048b5b:	e9 50 ff ff ff       	jmp    8048ab0 <_init+0x2c>

08048b60 <_ZStlsISt11char_traitsIcEERSt13basic_ostreamIcT_ES5_PKc@plt>:
 8048b60:	ff 25 18 c6 04 08    	jmp    *0x804c618
 8048b66:	68 50 00 00 00       	push   $0x50
 8048b6b:	e9 40 ff ff ff       	jmp    8048ab0 <_init+0x2c>

08048b70 <readdir@plt>:
 8048b70:	ff 25 1c c6 04 08    	jmp    *0x804c61c
 8048b76:	68 58 00 00 00       	push   $0x58
 8048b7b:	e9 30 ff ff ff       	jmp    8048ab0 <_init+0x2c>

08048b80 <opendir@plt>:
 8048b80:	ff 25 20 c6 04 08    	jmp    *0x804c620
 8048b86:	68 60 00 00 00       	push   $0x60
 8048b8b:	e9 20 ff ff ff       	jmp    8048ab0 <_init+0x2c>

08048b90 <realpath@plt>:
 8048b90:	ff 25 24 c6 04 08    	jmp    *0x804c624
 8048b96:	68 68 00 00 00       	push   $0x68
 8048b9b:	e9 10 ff ff ff       	jmp    8048ab0 <_init+0x2c>

08048ba0 <strlen@plt>:
 8048ba0:	ff 25 28 c6 04 08    	jmp    *0x804c628
 8048ba6:	68 70 00 00 00       	push   $0x70
 8048bab:	e9 00 ff ff ff       	jmp    8048ab0 <_init+0x2c>

08048bb0 <_ZNSolsEj@plt>:
 8048bb0:	ff 25 2c c6 04 08    	jmp    *0x804c62c
 8048bb6:	68 78 00 00 00       	push   $0x78
 8048bbb:	e9 f0 fe ff ff       	jmp    8048ab0 <_init+0x2c>

08048bc0 <__cxa_pure_virtual@plt>:
 8048bc0:	ff 25 30 c6 04 08    	jmp    *0x804c630
 8048bc6:	68 80 00 00 00       	push   $0x80
 8048bcb:	e9 e0 fe ff ff       	jmp    8048ab0 <_init+0x2c>

08048bd0 <_Znwj@plt>:
 8048bd0:	ff 25 34 c6 04 08    	jmp    *0x804c634
 8048bd6:	68 88 00 00 00       	push   $0x88
 8048bdb:	e9 d0 fe ff ff       	jmp    8048ab0 <_init+0x2c>

08048be0 <closedir@plt>:
 8048be0:	ff 25 38 c6 04 08    	jmp    *0x804c638
 8048be6:	68 90 00 00 00       	push   $0x90
 8048beb:	e9 c0 fe ff ff       	jmp    8048ab0 <_init+0x2c>

08048bf0 <_Znaj@plt>:
 8048bf0:	ff 25 3c c6 04 08    	jmp    *0x804c63c
 8048bf6:	68 98 00 00 00       	push   $0x98
 8048bfb:	e9 b0 fe ff ff       	jmp    8048ab0 <_init+0x2c>

08048c00 <memmove@plt>:
 8048c00:	ff 25 40 c6 04 08    	jmp    *0x804c640
 8048c06:	68 a0 00 00 00       	push   $0xa0
 8048c0b:	e9 a0 fe ff ff       	jmp    8048ab0 <_init+0x2c>

08048c10 <_ZdaPv@plt>:
 8048c10:	ff 25 44 c6 04 08    	jmp    *0x804c644
 8048c16:	68 a8 00 00 00       	push   $0xa8
 8048c1b:	e9 90 fe ff ff       	jmp    8048ab0 <_init+0x2c>

08048c20 <_ZNSolsEPFRSoS_E@plt>:
 8048c20:	ff 25 48 c6 04 08    	jmp    *0x804c648
 8048c26:	68 b0 00 00 00       	push   $0xb0
 8048c2b:	e9 80 fe ff ff       	jmp    8048ab0 <_init+0x2c>

08048c30 <__cxa_end_catch@plt>:
 8048c30:	ff 25 4c c6 04 08    	jmp    *0x804c64c
 8048c36:	68 b8 00 00 00       	push   $0xb8
 8048c3b:	e9 70 fe ff ff       	jmp    8048ab0 <_init+0x2c>

08048c40 <_ZSt17__throw_bad_allocv@plt>:
 8048c40:	ff 25 50 c6 04 08    	jmp    *0x804c650
 8048c46:	68 c0 00 00 00       	push   $0xc0
 8048c4b:	e9 60 fe ff ff       	jmp    8048ab0 <_init+0x2c>

08048c50 <_ZSt4endlIcSt11char_traitsIcEERSt13basic_ostreamIT_T0_ES6_@plt>:
 8048c50:	ff 25 54 c6 04 08    	jmp    *0x804c654
 8048c56:	68 c8 00 00 00       	push   $0xc8
 8048c5b:	e9 50 fe ff ff       	jmp    8048ab0 <_init+0x2c>

08048c60 <__cxa_begin_catch@plt>:
 8048c60:	ff 25 58 c6 04 08    	jmp    *0x804c658
 8048c66:	68 d0 00 00 00       	push   $0xd0
 8048c6b:	e9 40 fe ff ff       	jmp    8048ab0 <_init+0x2c>

08048c70 <__gxx_personality_v0@plt>:
 8048c70:	ff 25 5c c6 04 08    	jmp    *0x804c65c
 8048c76:	68 d8 00 00 00       	push   $0xd8
 8048c7b:	e9 30 fe ff ff       	jmp    8048ab0 <_init+0x2c>

08048c80 <strdup@plt>:
 8048c80:	ff 25 60 c6 04 08    	jmp    *0x804c660
 8048c86:	68 e0 00 00 00       	push   $0xe0
 8048c8b:	e9 20 fe ff ff       	jmp    8048ab0 <_init+0x2c>

08048c90 <_Unwind_Resume@plt>:
 8048c90:	ff 25 64 c6 04 08    	jmp    *0x804c664
 8048c96:	68 e8 00 00 00       	push   $0xe8
 8048c9b:	e9 10 fe ff ff       	jmp    8048ab0 <_init+0x2c>

08048ca0 <strcmp@plt>:
 8048ca0:	ff 25 68 c6 04 08    	jmp    *0x804c668
 8048ca6:	68 f0 00 00 00       	push   $0xf0
 8048cab:	e9 00 fe ff ff       	jmp    8048ab0 <_init+0x2c>

Déassemblage de la section .text:

08048cb0 <_start>:
 8048cb0:	31 ed                	xor    %ebp,%ebp
 8048cb2:	5e                   	pop    %esi
 8048cb3:	89 e1                	mov    %esp,%ecx
 8048cb5:	83 e4 f0             	and    $0xfffffff0,%esp
 8048cb8:	50                   	push   %eax
 8048cb9:	54                   	push   %esp
 8048cba:	52                   	push   %edx
 8048cbb:	68 30 a4 04 08       	push   $0x804a430
 8048cc0:	68 40 a4 04 08       	push   $0x804a440
 8048cc5:	51                   	push   %ecx
 8048cc6:	56                   	push   %esi
 8048cc7:	68 1c 9e 04 08       	push   $0x8049e1c
 8048ccc:	e8 6f fe ff ff       	call   8048b40 <__libc_start_main@plt>
 8048cd1:	f4                   	hlt    
 8048cd2:	90                   	nop
 8048cd3:	90                   	nop
 8048cd4:	90                   	nop
 8048cd5:	90                   	nop
 8048cd6:	90                   	nop
 8048cd7:	90                   	nop
 8048cd8:	90                   	nop
 8048cd9:	90                   	nop
 8048cda:	90                   	nop
 8048cdb:	90                   	nop
 8048cdc:	90                   	nop
 8048cdd:	90                   	nop
 8048cde:	90                   	nop
 8048cdf:	90                   	nop

08048ce0 <deregister_tm_clones>:
 8048ce0:	b8 77 c6 04 08       	mov    $0x804c677,%eax
 8048ce5:	2d 74 c6 04 08       	sub    $0x804c674,%eax
 8048cea:	83 f8 06             	cmp    $0x6,%eax
 8048ced:	77 02                	ja     8048cf1 <deregister_tm_clones+0x11>
 8048cef:	f3 c3                	repz ret 
 8048cf1:	b8 00 00 00 00       	mov    $0x0,%eax
 8048cf6:	85 c0                	test   %eax,%eax
 8048cf8:	74 f5                	je     8048cef <deregister_tm_clones+0xf>
 8048cfa:	55                   	push   %ebp
 8048cfb:	89 e5                	mov    %esp,%ebp
 8048cfd:	83 ec 18             	sub    $0x18,%esp
 8048d00:	c7 04 24 74 c6 04 08 	movl   $0x804c674,(%esp)
 8048d07:	ff d0                	call   *%eax
 8048d09:	c9                   	leave  
 8048d0a:	c3                   	ret    
 8048d0b:	90                   	nop
 8048d0c:	8d 74 26 00          	lea    0x0(%esi,%eiz,1),%esi

08048d10 <register_tm_clones>:
 8048d10:	b8 74 c6 04 08       	mov    $0x804c674,%eax
 8048d15:	2d 74 c6 04 08       	sub    $0x804c674,%eax
 8048d1a:	c1 f8 02             	sar    $0x2,%eax
 8048d1d:	89 c2                	mov    %eax,%edx
 8048d1f:	c1 ea 1f             	shr    $0x1f,%edx
 8048d22:	01 d0                	add    %edx,%eax
 8048d24:	d1 f8                	sar    %eax
 8048d26:	75 02                	jne    8048d2a <register_tm_clones+0x1a>
 8048d28:	f3 c3                	repz ret 
 8048d2a:	ba 00 00 00 00       	mov    $0x0,%edx
 8048d2f:	85 d2                	test   %edx,%edx
 8048d31:	74 f5                	je     8048d28 <register_tm_clones+0x18>
 8048d33:	55                   	push   %ebp
 8048d34:	89 e5                	mov    %esp,%ebp
 8048d36:	83 ec 18             	sub    $0x18,%esp
 8048d39:	89 44 24 04          	mov    %eax,0x4(%esp)
 8048d3d:	c7 04 24 74 c6 04 08 	movl   $0x804c674,(%esp)
 8048d44:	ff d2                	call   *%edx
 8048d46:	c9                   	leave  
 8048d47:	c3                   	ret    
 8048d48:	90                   	nop
 8048d49:	8d b4 26 00 00 00 00 	lea    0x0(%esi,%eiz,1),%esi

08048d50 <__do_global_dtors_aux>:
 8048d50:	80 3d 8c c7 04 08 00 	cmpb   $0x0,0x804c78c
 8048d57:	75 13                	jne    8048d6c <__do_global_dtors_aux+0x1c>
 8048d59:	55                   	push   %ebp
 8048d5a:	89 e5                	mov    %esp,%ebp
 8048d5c:	83 ec 08             	sub    $0x8,%esp
 8048d5f:	e8 7c ff ff ff       	call   8048ce0 <deregister_tm_clones>
 8048d64:	c6 05 8c c7 04 08 01 	movb   $0x1,0x804c78c
 8048d6b:	c9                   	leave  
 8048d6c:	f3 c3                	repz ret 
 8048d6e:	66 90                	xchg   %ax,%ax

08048d70 <frame_dummy>:
 8048d70:	a1 d4 c4 04 08       	mov    0x804c4d4,%eax
 8048d75:	85 c0                	test   %eax,%eax
 8048d77:	74 1e                	je     8048d97 <frame_dummy+0x27>
 8048d79:	b8 00 00 00 00       	mov    $0x0,%eax
 8048d7e:	85 c0                	test   %eax,%eax
 8048d80:	74 15                	je     8048d97 <frame_dummy+0x27>
 8048d82:	55                   	push   %ebp
 8048d83:	89 e5                	mov    %esp,%ebp
 8048d85:	83 ec 18             	sub    $0x18,%esp
 8048d88:	c7 04 24 d4 c4 04 08 	movl   $0x804c4d4,(%esp)
 8048d8f:	ff d0                	call   *%eax
 8048d91:	c9                   	leave  
 8048d92:	e9 79 ff ff ff       	jmp    8048d10 <register_tm_clones>
 8048d97:	e9 74 ff ff ff       	jmp    8048d10 <register_tm_clones>

08048d9c <_ZNK7Element8get_nameEv>:
 8048d9c:	55                   	push   %ebp
 8048d9d:	89 e5                	mov    %esp,%ebp
 8048d9f:	83 ec 18             	sub    $0x18,%esp
 8048da2:	8b 45 08             	mov    0x8(%ebp),%eax
 8048da5:	83 c0 04             	add    $0x4,%eax
 8048da8:	89 04 24             	mov    %eax,(%esp)
 8048dab:	e8 d0 fe ff ff       	call   8048c80 <strdup@plt>
 8048db0:	c9                   	leave  
 8048db1:	c3                   	ret    

08048db2 <_ZNK7Element8get_sizeEv>:
 8048db2:	55                   	push   %ebp
 8048db3:	89 e5                	mov    %esp,%ebp
 8048db5:	8b 45 08             	mov    0x8(%ebp),%eax
 8048db8:	8b 80 08 02 00 00    	mov    0x208(%eax),%eax
 8048dbe:	5d                   	pop    %ebp
 8048dbf:	c3                   	ret    

08048dc0 <_ZNK7Element8get_dateEv>:
 8048dc0:	55                   	push   %ebp
 8048dc1:	89 e5                	mov    %esp,%ebp
 8048dc3:	8b 45 08             	mov    0x8(%ebp),%eax
 8048dc6:	8b 80 0c 02 00 00    	mov    0x20c(%eax),%eax
 8048dcc:	5d                   	pop    %ebp
 8048dcd:	c3                   	ret    

08048dce <_ZNK7Element4failEv>:
 8048dce:	55                   	push   %ebp
 8048dcf:	89 e5                	mov    %esp,%ebp
 8048dd1:	8b 45 08             	mov    0x8(%ebp),%eax
 8048dd4:	0f b6 80 10 02 00 00 	movzbl 0x210(%eax),%eax
 8048ddb:	83 f0 01             	xor    $0x1,%eax
 8048dde:	5d                   	pop    %ebp
 8048ddf:	c3                   	ret    

08048de0 <_ZNK7Element6largerEPS_>:
 8048de0:	55                   	push   %ebp
 8048de1:	89 e5                	mov    %esp,%ebp
 8048de3:	53                   	push   %ebx
 8048de4:	83 ec 04             	sub    $0x4,%esp
 8048de7:	8b 45 08             	mov    0x8(%ebp),%eax
 8048dea:	8b 98 08 02 00 00    	mov    0x208(%eax),%ebx
 8048df0:	8b 45 0c             	mov    0xc(%ebp),%eax
 8048df3:	89 04 24             	mov    %eax,(%esp)
 8048df6:	e8 b7 ff ff ff       	call   8048db2 <_ZNK7Element8get_sizeEv>
 8048dfb:	39 c3                	cmp    %eax,%ebx
 8048dfd:	0f 97 c0             	seta   %al
 8048e00:	83 c4 04             	add    $0x4,%esp
 8048e03:	5b                   	pop    %ebx
 8048e04:	5d                   	pop    %ebp
 8048e05:	c3                   	ret    

08048e06 <_ZNK7Element5newerEPS_>:
 8048e06:	55                   	push   %ebp
 8048e07:	89 e5                	mov    %esp,%ebp
 8048e09:	53                   	push   %ebx
 8048e0a:	83 ec 04             	sub    $0x4,%esp
 8048e0d:	8b 45 08             	mov    0x8(%ebp),%eax
 8048e10:	8b 98 0c 02 00 00    	mov    0x20c(%eax),%ebx
 8048e16:	8b 45 0c             	mov    0xc(%ebp),%eax
 8048e19:	89 04 24             	mov    %eax,(%esp)
 8048e1c:	e8 9f ff ff ff       	call   8048dc0 <_ZNK7Element8get_dateEv>
 8048e21:	39 c3                	cmp    %eax,%ebx
 8048e23:	0f 97 c0             	seta   %al
 8048e26:	83 c4 04             	add    $0x4,%esp
 8048e29:	5b                   	pop    %ebx
 8048e2a:	5d                   	pop    %ebp
 8048e2b:	c3                   	ret    

08048e2c <_ZN7Element4loadEPc>:
 8048e2c:	55                   	push   %ebp
 8048e2d:	89 e5                	mov    %esp,%ebp
 8048e2f:	83 ec 18             	sub    $0x18,%esp
 8048e32:	8b 45 08             	mov    0x8(%ebp),%eax
 8048e35:	83 c0 04             	add    $0x4,%eax
 8048e38:	89 44 24 04          	mov    %eax,0x4(%esp)
 8048e3c:	8b 45 0c             	mov    0xc(%ebp),%eax
 8048e3f:	89 04 24             	mov    %eax,(%esp)
 8048e42:	e8 49 fd ff ff       	call   8048b90 <realpath@plt>
 8048e47:	8b 45 08             	mov    0x8(%ebp),%eax
 8048e4a:	8d 90 14 02 00 00    	lea    0x214(%eax),%edx
 8048e50:	8b 45 08             	mov    0x8(%ebp),%eax
 8048e53:	83 c0 04             	add    $0x4,%eax
 8048e56:	89 54 24 04          	mov    %edx,0x4(%esp)
 8048e5a:	89 04 24             	mov    %eax,(%esp)
 8048e5d:	e8 3e 16 00 00       	call   804a4a0 <__stat>
 8048e62:	85 c0                	test   %eax,%eax
 8048e64:	0f 94 c0             	sete   %al
 8048e67:	84 c0                	test   %al,%al
 8048e69:	74 0a                	je     8048e75 <_ZN7Element4loadEPc+0x49>
 8048e6b:	8b 45 08             	mov    0x8(%ebp),%eax
 8048e6e:	c6 80 10 02 00 00 01 	movb   $0x1,0x210(%eax)
 8048e75:	c9                   	leave  
 8048e76:	c3                   	ret    
 8048e77:	90                   	nop

08048e78 <_ZN7ElementC1Ev>:
 8048e78:	55                   	push   %ebp
 8048e79:	89 e5                	mov    %esp,%ebp
 8048e7b:	8b 45 08             	mov    0x8(%ebp),%eax
 8048e7e:	c7 00 00 a5 04 08    	movl   $0x804a500,(%eax)
 8048e84:	8b 45 08             	mov    0x8(%ebp),%eax
 8048e87:	c7 80 08 02 00 00 00 	movl   $0x0,0x208(%eax)
 8048e8e:	00 00 00 
 8048e91:	8b 45 08             	mov    0x8(%ebp),%eax
 8048e94:	c6 80 10 02 00 00 00 	movb   $0x0,0x210(%eax)
 8048e9b:	5d                   	pop    %ebp
 8048e9c:	c3                   	ret    
 8048e9d:	90                   	nop

08048e9e <_ZN7ElementD1Ev>:
 8048e9e:	55                   	push   %ebp
 8048e9f:	89 e5                	mov    %esp,%ebp
 8048ea1:	83 ec 18             	sub    $0x18,%esp
 8048ea4:	8b 45 08             	mov    0x8(%ebp),%eax
 8048ea7:	c7 00 00 a5 04 08    	movl   $0x804a500,(%eax)
 8048ead:	b8 00 00 00 00       	mov    $0x0,%eax
 8048eb2:	83 e0 01             	and    $0x1,%eax
 8048eb5:	85 c0                	test   %eax,%eax
 8048eb7:	74 0b                	je     8048ec4 <_ZN7ElementD1Ev+0x26>
 8048eb9:	8b 45 08             	mov    0x8(%ebp),%eax
 8048ebc:	89 04 24             	mov    %eax,(%esp)
 8048ebf:	e8 4c fc ff ff       	call   8048b10 <_ZdlPv@plt>
 8048ec4:	c9                   	leave  
 8048ec5:	c3                   	ret    

08048ec6 <_ZN7ElementD0Ev>:
 8048ec6:	55                   	push   %ebp
 8048ec7:	89 e5                	mov    %esp,%ebp
 8048ec9:	83 ec 18             	sub    $0x18,%esp
 8048ecc:	8b 45 08             	mov    0x8(%ebp),%eax
 8048ecf:	89 04 24             	mov    %eax,(%esp)
 8048ed2:	e8 c7 ff ff ff       	call   8048e9e <_ZN7ElementD1Ev>
 8048ed7:	8b 45 08             	mov    0x8(%ebp),%eax
 8048eda:	89 04 24             	mov    %eax,(%esp)
 8048edd:	e8 2e fc ff ff       	call   8048b10 <_ZdlPv@plt>
 8048ee2:	c9                   	leave  
 8048ee3:	c3                   	ret    

08048ee4 <_ZNK6Folder8get_typeEv>:
 8048ee4:	55                   	push   %ebp
 8048ee5:	89 e5                	mov    %esp,%ebp
 8048ee7:	83 ec 18             	sub    $0x18,%esp
 8048eea:	c7 04 24 21 a5 04 08 	movl   $0x804a521,(%esp)
 8048ef1:	e8 8a fd ff ff       	call   8048c80 <strdup@plt>
 8048ef6:	c9                   	leave  
 8048ef7:	c3                   	ret    

08048ef8 <_ZN6Folder12compute_sizeEv>:
 8048ef8:	55                   	push   %ebp
 8048ef9:	89 e5                	mov    %esp,%ebp
 8048efb:	83 ec 28             	sub    $0x28,%esp
 8048efe:	8b 45 08             	mov    0x8(%ebp),%eax
 8048f01:	c7 80 08 02 00 00 00 	movl   $0x0,0x208(%eax)
 8048f08:	00 00 00 
 8048f0b:	c7 45 f4 00 00 00 00 	movl   $0x0,-0xc(%ebp)
 8048f12:	eb 65                	jmp    8048f79 <_ZN6Folder12compute_sizeEv+0x81>
 8048f14:	8b 45 08             	mov    0x8(%ebp),%eax
 8048f17:	8d 90 6c 02 00 00    	lea    0x26c(%eax),%edx
 8048f1d:	8b 45 f4             	mov    -0xc(%ebp),%eax
 8048f20:	89 44 24 04          	mov    %eax,0x4(%esp)
 8048f24:	89 14 24             	mov    %edx,(%esp)
 8048f27:	e8 cc 03 00 00       	call   80492f8 <_ZNSt6vectorIP7ElementSaIS1_EEixEj>
 8048f2c:	8b 00                	mov    (%eax),%eax
 8048f2e:	89 04 24             	mov    %eax,(%esp)
 8048f31:	e8 98 fe ff ff       	call   8048dce <_ZNK7Element4failEv>
 8048f36:	83 f0 01             	xor    $0x1,%eax
 8048f39:	84 c0                	test   %al,%al
 8048f3b:	74 38                	je     8048f75 <_ZN6Folder12compute_sizeEv+0x7d>
 8048f3d:	8b 45 08             	mov    0x8(%ebp),%eax
 8048f40:	8d 90 6c 02 00 00    	lea    0x26c(%eax),%edx
 8048f46:	8b 45 f4             	mov    -0xc(%ebp),%eax
 8048f49:	89 44 24 04          	mov    %eax,0x4(%esp)
 8048f4d:	89 14 24             	mov    %edx,(%esp)
 8048f50:	e8 a3 03 00 00       	call   80492f8 <_ZNSt6vectorIP7ElementSaIS1_EEixEj>
 8048f55:	8b 00                	mov    (%eax),%eax
 8048f57:	89 04 24             	mov    %eax,(%esp)
 8048f5a:	e8 53 fe ff ff       	call   8048db2 <_ZNK7Element8get_sizeEv>
 8048f5f:	89 c2                	mov    %eax,%edx
 8048f61:	8b 45 08             	mov    0x8(%ebp),%eax
 8048f64:	8b 80 08 02 00 00    	mov    0x208(%eax),%eax
 8048f6a:	01 c2                	add    %eax,%edx
 8048f6c:	8b 45 08             	mov    0x8(%ebp),%eax
 8048f6f:	89 90 08 02 00 00    	mov    %edx,0x208(%eax)
 8048f75:	83 45 f4 01          	addl   $0x1,-0xc(%ebp)
 8048f79:	8b 45 08             	mov    0x8(%ebp),%eax
 8048f7c:	05 6c 02 00 00       	add    $0x26c,%eax
 8048f81:	89 04 24             	mov    %eax,(%esp)
 8048f84:	e8 53 03 00 00       	call   80492dc <_ZNKSt6vectorIP7ElementSaIS1_EE4sizeEv>
 8048f89:	3b 45 f4             	cmp    -0xc(%ebp),%eax
 8048f8c:	0f 97 c0             	seta   %al
 8048f8f:	84 c0                	test   %al,%al
 8048f91:	75 81                	jne    8048f14 <_ZN6Folder12compute_sizeEv+0x1c>
 8048f93:	c9                   	leave  
 8048f94:	c3                   	ret    
 8048f95:	90                   	nop

08048f96 <_ZN6Folder13read_elementsEv>:
 8048f96:	55                   	push   %ebp
 8048f97:	89 e5                	mov    %esp,%ebp
 8048f99:	56                   	push   %esi
 8048f9a:	53                   	push   %ebx
 8048f9b:	83 ec 20             	sub    $0x20,%esp
 8048f9e:	8b 45 08             	mov    0x8(%ebp),%eax
 8048fa1:	83 c0 04             	add    $0x4,%eax
 8048fa4:	89 04 24             	mov    %eax,(%esp)
 8048fa7:	e8 d4 fb ff ff       	call   8048b80 <opendir@plt>
 8048fac:	89 45 f4             	mov    %eax,-0xc(%ebp)
 8048faf:	83 7d f4 00          	cmpl   $0x0,-0xc(%ebp)
 8048fb3:	0f 94 c0             	sete   %al
 8048fb6:	84 c0                	test   %al,%al
 8048fb8:	0f 84 2d 01 00 00    	je     80490eb <_ZN6Folder13read_elementsEv+0x155>
 8048fbe:	8b 45 08             	mov    0x8(%ebp),%eax
 8048fc1:	c6 80 10 02 00 00 00 	movb   $0x0,0x210(%eax)
 8048fc8:	e9 6c 01 00 00       	jmp    8049139 <_ZN6Folder13read_elementsEv+0x1a3>
 8048fcd:	8b 45 f0             	mov    -0x10(%ebp),%eax
 8048fd0:	83 c0 0b             	add    $0xb,%eax
 8048fd3:	c7 44 24 04 28 a5 04 	movl   $0x804a528,0x4(%esp)
 8048fda:	08 
 8048fdb:	89 04 24             	mov    %eax,(%esp)
 8048fde:	e8 bd fc ff ff       	call   8048ca0 <strcmp@plt>
 8048fe3:	85 c0                	test   %eax,%eax
 8048fe5:	0f 84 00 01 00 00    	je     80490eb <_ZN6Folder13read_elementsEv+0x155>
 8048feb:	8b 45 f0             	mov    -0x10(%ebp),%eax
 8048fee:	83 c0 0b             	add    $0xb,%eax
 8048ff1:	c7 44 24 04 2a a5 04 	movl   $0x804a52a,0x4(%esp)
 8048ff8:	08 
 8048ff9:	89 04 24             	mov    %eax,(%esp)
 8048ffc:	e8 9f fc ff ff       	call   8048ca0 <strcmp@plt>
 8049001:	85 c0                	test   %eax,%eax
 8049003:	0f 84 e2 00 00 00    	je     80490eb <_ZN6Folder13read_elementsEv+0x155>
 8049009:	8b 45 f0             	mov    -0x10(%ebp),%eax
 804900c:	0f b6 40 0a          	movzbl 0xa(%eax),%eax
 8049010:	3c 04                	cmp    $0x4,%al
 8049012:	75 1b                	jne    804902f <_ZN6Folder13read_elementsEv+0x99>
 8049014:	c7 04 24 78 02 00 00 	movl   $0x278,(%esp)
 804901b:	e8 b0 fb ff ff       	call   8048bd0 <_Znwj@plt>
 8049020:	89 c3                	mov    %eax,%ebx
 8049022:	89 1c 24             	mov    %ebx,(%esp)
 8049025:	e8 6c 01 00 00       	call   8049196 <_ZN6FolderC1Ev>
 804902a:	89 5d e8             	mov    %ebx,-0x18(%ebp)
 804902d:	eb 28                	jmp    8049057 <_ZN6Folder13read_elementsEv+0xc1>
 804902f:	8b 45 f0             	mov    -0x10(%ebp),%eax
 8049032:	0f b6 40 0a          	movzbl 0xa(%eax),%eax
 8049036:	3c 08                	cmp    $0x8,%al
 8049038:	0f 85 ad 00 00 00    	jne    80490eb <_ZN6Folder13read_elementsEv+0x155>
 804903e:	c7 04 24 6c 02 00 00 	movl   $0x26c,(%esp)
 8049045:	e8 86 fb ff ff       	call   8048bd0 <_Znwj@plt>
 804904a:	89 c3                	mov    %eax,%ebx
 804904c:	89 1c 24             	mov    %ebx,(%esp)
 804904f:	e8 58 0d 00 00       	call   8049dac <_ZN4FileC1Ev>
 8049054:	89 5d e8             	mov    %ebx,-0x18(%ebp)
 8049057:	8b 45 08             	mov    0x8(%ebp),%eax
 804905a:	83 c0 04             	add    $0x4,%eax
 804905d:	89 04 24             	mov    %eax,(%esp)
 8049060:	e8 3b fb ff ff       	call   8048ba0 <strlen@plt>
 8049065:	89 c3                	mov    %eax,%ebx
 8049067:	8b 45 f0             	mov    -0x10(%ebp),%eax
 804906a:	83 c0 0b             	add    $0xb,%eax
 804906d:	89 04 24             	mov    %eax,(%esp)
 8049070:	e8 2b fb ff ff       	call   8048ba0 <strlen@plt>
 8049075:	01 d8                	add    %ebx,%eax
 8049077:	83 c0 02             	add    $0x2,%eax
 804907a:	89 04 24             	mov    %eax,(%esp)
 804907d:	e8 6e fb ff ff       	call   8048bf0 <_Znaj@plt>
 8049082:	89 45 ec             	mov    %eax,-0x14(%ebp)
 8049085:	8b 45 f0             	mov    -0x10(%ebp),%eax
 8049088:	8d 50 0b             	lea    0xb(%eax),%edx
 804908b:	8b 45 08             	mov    0x8(%ebp),%eax
 804908e:	83 c0 04             	add    $0x4,%eax
 8049091:	89 54 24 0c          	mov    %edx,0xc(%esp)
 8049095:	89 44 24 08          	mov    %eax,0x8(%esp)
 8049099:	c7 44 24 04 2d a5 04 	movl   $0x804a52d,0x4(%esp)
 80490a0:	08 
 80490a1:	8b 45 ec             	mov    -0x14(%ebp),%eax
 80490a4:	89 04 24             	mov    %eax,(%esp)
 80490a7:	e8 24 fa ff ff       	call   8048ad0 <sprintf@plt>
 80490ac:	8b 45 e8             	mov    -0x18(%ebp),%eax
 80490af:	8b 00                	mov    (%eax),%eax
 80490b1:	8b 00                	mov    (%eax),%eax
 80490b3:	8b 55 e8             	mov    -0x18(%ebp),%edx
 80490b6:	8b 4d ec             	mov    -0x14(%ebp),%ecx
 80490b9:	89 4c 24 04          	mov    %ecx,0x4(%esp)
 80490bd:	89 14 24             	mov    %edx,(%esp)
 80490c0:	ff d0                	call   *%eax
 80490c2:	8b 45 08             	mov    0x8(%ebp),%eax
 80490c5:	8d 90 6c 02 00 00    	lea    0x26c(%eax),%edx
 80490cb:	8d 45 e8             	lea    -0x18(%ebp),%eax
 80490ce:	89 44 24 04          	mov    %eax,0x4(%esp)
 80490d2:	89 14 24             	mov    %edx,(%esp)
 80490d5:	e8 30 02 00 00       	call   804930a <_ZNSt6vectorIP7ElementSaIS1_EE9push_backERKS1_>
 80490da:	83 7d ec 00          	cmpl   $0x0,-0x14(%ebp)
 80490de:	74 0b                	je     80490eb <_ZN6Folder13read_elementsEv+0x155>
 80490e0:	8b 45 ec             	mov    -0x14(%ebp),%eax
 80490e3:	89 04 24             	mov    %eax,(%esp)
 80490e6:	e8 25 fb ff ff       	call   8048c10 <_ZdaPv@plt>
 80490eb:	8b 45 f4             	mov    -0xc(%ebp),%eax
 80490ee:	89 04 24             	mov    %eax,(%esp)
 80490f1:	e8 7a fa ff ff       	call   8048b70 <readdir@plt>
 80490f6:	89 45 f0             	mov    %eax,-0x10(%ebp)
 80490f9:	83 7d f0 00          	cmpl   $0x0,-0x10(%ebp)
 80490fd:	0f 95 c0             	setne  %al
 8049100:	84 c0                	test   %al,%al
 8049102:	0f 85 c5 fe ff ff    	jne    8048fcd <_ZN6Folder13read_elementsEv+0x37>
 8049108:	8b 45 f4             	mov    -0xc(%ebp),%eax
 804910b:	89 04 24             	mov    %eax,(%esp)
 804910e:	e8 cd fa ff ff       	call   8048be0 <closedir@plt>
 8049113:	eb 24                	jmp    8049139 <_ZN6Folder13read_elementsEv+0x1a3>
 8049115:	89 c6                	mov    %eax,%esi
 8049117:	89 1c 24             	mov    %ebx,(%esp)
 804911a:	e8 f1 f9 ff ff       	call   8048b10 <_ZdlPv@plt>
 804911f:	89 f0                	mov    %esi,%eax
 8049121:	eb 0e                	jmp    8049131 <_ZN6Folder13read_elementsEv+0x19b>
 8049123:	89 c6                	mov    %eax,%esi
 8049125:	89 1c 24             	mov    %ebx,(%esp)
 8049128:	e8 e3 f9 ff ff       	call   8048b10 <_ZdlPv@plt>
 804912d:	89 f0                	mov    %esi,%eax
 804912f:	eb 00                	jmp    8049131 <_ZN6Folder13read_elementsEv+0x19b>
 8049131:	89 04 24             	mov    %eax,(%esp)
 8049134:	e8 57 fb ff ff       	call   8048c90 <_Unwind_Resume@plt>
 8049139:	83 c4 20             	add    $0x20,%esp
 804913c:	5b                   	pop    %ebx
 804913d:	5e                   	pop    %esi
 804913e:	5d                   	pop    %ebp
 804913f:	c3                   	ret    

08049140 <_ZN6Folder4loadEPc>:
 8049140:	55                   	push   %ebp
 8049141:	89 e5                	mov    %esp,%ebp
 8049143:	83 ec 18             	sub    $0x18,%esp
 8049146:	8b 45 08             	mov    0x8(%ebp),%eax
 8049149:	8b 55 0c             	mov    0xc(%ebp),%edx
 804914c:	89 54 24 04          	mov    %edx,0x4(%esp)
 8049150:	89 04 24             	mov    %eax,(%esp)
 8049153:	e8 d4 fc ff ff       	call   8048e2c <_ZN7Element4loadEPc>
 8049158:	8b 45 08             	mov    0x8(%ebp),%eax
 804915b:	89 04 24             	mov    %eax,(%esp)
 804915e:	e8 6b fc ff ff       	call   8048dce <_ZNK7Element4failEv>
 8049163:	83 f0 01             	xor    $0x1,%eax
 8049166:	84 c0                	test   %al,%al
 8049168:	74 2a                	je     8049194 <_ZN6Folder4loadEPc+0x54>
 804916a:	8b 45 08             	mov    0x8(%ebp),%eax
 804916d:	89 04 24             	mov    %eax,(%esp)
 8049170:	e8 21 fe ff ff       	call   8048f96 <_ZN6Folder13read_elementsEv>
 8049175:	8b 45 08             	mov    0x8(%ebp),%eax
 8049178:	89 04 24             	mov    %eax,(%esp)
 804917b:	e8 78 fd ff ff       	call   8048ef8 <_ZN6Folder12compute_sizeEv>
 8049180:	8b 45 08             	mov    0x8(%ebp),%eax
 8049183:	8b 80 54 02 00 00    	mov    0x254(%eax),%eax
 8049189:	89 c2                	mov    %eax,%edx
 804918b:	8b 45 08             	mov    0x8(%ebp),%eax
 804918e:	89 90 0c 02 00 00    	mov    %edx,0x20c(%eax)
 8049194:	c9                   	leave  
 8049195:	c3                   	ret    

08049196 <_ZN6FolderC1Ev>:
 8049196:	55                   	push   %ebp
 8049197:	89 e5                	mov    %esp,%ebp
 8049199:	53                   	push   %ebx
 804919a:	83 ec 14             	sub    $0x14,%esp
 804919d:	8b 45 08             	mov    0x8(%ebp),%eax
 80491a0:	89 04 24             	mov    %eax,(%esp)
 80491a3:	e8 d0 fc ff ff       	call   8048e78 <_ZN7ElementC1Ev>
 80491a8:	8b 45 08             	mov    0x8(%ebp),%eax
 80491ab:	c7 00 58 a5 04 08    	movl   $0x804a558,(%eax)
 80491b1:	8b 45 08             	mov    0x8(%ebp),%eax
 80491b4:	05 6c 02 00 00       	add    $0x26c,%eax
 80491b9:	89 04 24             	mov    %eax,(%esp)
 80491bc:	e8 bd 01 00 00       	call   804937e <_ZNSt6vectorIP7ElementSaIS1_EEC1Ev>
 80491c1:	eb 17                	jmp    80491da <_ZN6FolderC1Ev+0x44>
 80491c3:	89 c3                	mov    %eax,%ebx
 80491c5:	8b 45 08             	mov    0x8(%ebp),%eax
 80491c8:	89 04 24             	mov    %eax,(%esp)
 80491cb:	e8 ce fc ff ff       	call   8048e9e <_ZN7ElementD1Ev>
 80491d0:	89 d8                	mov    %ebx,%eax
 80491d2:	89 04 24             	mov    %eax,(%esp)
 80491d5:	e8 b6 fa ff ff       	call   8048c90 <_Unwind_Resume@plt>
 80491da:	83 c4 14             	add    $0x14,%esp
 80491dd:	5b                   	pop    %ebx
 80491de:	5d                   	pop    %ebp
 80491df:	c3                   	ret    

080491e0 <_ZN6FolderD1Ev>:
 80491e0:	55                   	push   %ebp
 80491e1:	89 e5                	mov    %esp,%ebp
 80491e3:	53                   	push   %ebx
 80491e4:	83 ec 24             	sub    $0x24,%esp
 80491e7:	8b 45 08             	mov    0x8(%ebp),%eax
 80491ea:	c7 00 58 a5 04 08    	movl   $0x804a558,(%eax)
 80491f0:	c7 45 f4 00 00 00 00 	movl   $0x0,-0xc(%ebp)
 80491f7:	eb 2e                	jmp    8049227 <_ZN6FolderD1Ev+0x47>
 80491f9:	8b 45 08             	mov    0x8(%ebp),%eax
 80491fc:	8d 90 6c 02 00 00    	lea    0x26c(%eax),%edx
 8049202:	8b 45 f4             	mov    -0xc(%ebp),%eax
 8049205:	89 44 24 04          	mov    %eax,0x4(%esp)
 8049209:	89 14 24             	mov    %edx,(%esp)
 804920c:	e8 e7 00 00 00       	call   80492f8 <_ZNSt6vectorIP7ElementSaIS1_EEixEj>
 8049211:	8b 00                	mov    (%eax),%eax
 8049213:	85 c0                	test   %eax,%eax
 8049215:	74 0c                	je     8049223 <_ZN6FolderD1Ev+0x43>
 8049217:	8b 10                	mov    (%eax),%edx
 8049219:	83 c2 0c             	add    $0xc,%edx
 804921c:	8b 12                	mov    (%edx),%edx
 804921e:	89 04 24             	mov    %eax,(%esp)
 8049221:	ff d2                	call   *%edx
 8049223:	83 45 f4 01          	addl   $0x1,-0xc(%ebp)
 8049227:	8b 45 08             	mov    0x8(%ebp),%eax
 804922a:	05 6c 02 00 00       	add    $0x26c,%eax
 804922f:	89 04 24             	mov    %eax,(%esp)
 8049232:	e8 a5 00 00 00       	call   80492dc <_ZNKSt6vectorIP7ElementSaIS1_EE4sizeEv>
 8049237:	3b 45 f4             	cmp    -0xc(%ebp),%eax
 804923a:	0f 97 c0             	seta   %al
 804923d:	84 c0                	test   %al,%al
 804923f:	75 b8                	jne    80491f9 <_ZN6FolderD1Ev+0x19>
 8049241:	8b 45 08             	mov    0x8(%ebp),%eax
 8049244:	05 6c 02 00 00       	add    $0x26c,%eax
 8049249:	89 04 24             	mov    %eax,(%esp)
 804924c:	e8 99 01 00 00       	call   80493ea <_ZNSt6vectorIP7ElementSaIS1_EE5clearEv>
 8049251:	8b 45 08             	mov    0x8(%ebp),%eax
 8049254:	05 6c 02 00 00       	add    $0x26c,%eax
 8049259:	89 04 24             	mov    %eax,(%esp)
 804925c:	e8 31 01 00 00       	call   8049392 <_ZNSt6vectorIP7ElementSaIS1_EED1Ev>
 8049261:	8b 45 08             	mov    0x8(%ebp),%eax
 8049264:	89 04 24             	mov    %eax,(%esp)
 8049267:	e8 32 fc ff ff       	call   8048e9e <_ZN7ElementD1Ev>
 804926c:	b8 00 00 00 00       	mov    $0x0,%eax
 8049271:	83 e0 01             	and    $0x1,%eax
 8049274:	85 c0                	test   %eax,%eax
 8049276:	74 38                	je     80492b0 <_ZN6FolderD1Ev+0xd0>
 8049278:	8b 45 08             	mov    0x8(%ebp),%eax
 804927b:	89 04 24             	mov    %eax,(%esp)
 804927e:	e8 8d f8 ff ff       	call   8048b10 <_ZdlPv@plt>
 8049283:	eb 2b                	jmp    80492b0 <_ZN6FolderD1Ev+0xd0>
 8049285:	89 c3                	mov    %eax,%ebx
 8049287:	8b 45 08             	mov    0x8(%ebp),%eax
 804928a:	05 6c 02 00 00       	add    $0x26c,%eax
 804928f:	89 04 24             	mov    %eax,(%esp)
 8049292:	e8 fb 00 00 00       	call   8049392 <_ZNSt6vectorIP7ElementSaIS1_EED1Ev>
 8049297:	eb 02                	jmp    804929b <_ZN6FolderD1Ev+0xbb>
 8049299:	89 c3                	mov    %eax,%ebx
 804929b:	8b 45 08             	mov    0x8(%ebp),%eax
 804929e:	89 04 24             	mov    %eax,(%esp)
 80492a1:	e8 f8 fb ff ff       	call   8048e9e <_ZN7ElementD1Ev>
 80492a6:	89 d8                	mov    %ebx,%eax
 80492a8:	89 04 24             	mov    %eax,(%esp)
 80492ab:	e8 e0 f9 ff ff       	call   8048c90 <_Unwind_Resume@plt>
 80492b0:	83 c4 24             	add    $0x24,%esp
 80492b3:	5b                   	pop    %ebx
 80492b4:	5d                   	pop    %ebp
 80492b5:	c3                   	ret    

080492b6 <_ZN6FolderD0Ev>:
 80492b6:	55                   	push   %ebp
 80492b7:	89 e5                	mov    %esp,%ebp
 80492b9:	83 ec 18             	sub    $0x18,%esp
 80492bc:	8b 45 08             	mov    0x8(%ebp),%eax
 80492bf:	89 04 24             	mov    %eax,(%esp)
 80492c2:	e8 19 ff ff ff       	call   80491e0 <_ZN6FolderD1Ev>
 80492c7:	8b 45 08             	mov    0x8(%ebp),%eax
 80492ca:	89 04 24             	mov    %eax,(%esp)
 80492cd:	e8 3e f8 ff ff       	call   8048b10 <_ZdlPv@plt>
 80492d2:	c9                   	leave  
 80492d3:	c3                   	ret    

080492d4 <_ZnwjPv>:
 80492d4:	55                   	push   %ebp
 80492d5:	89 e5                	mov    %esp,%ebp
 80492d7:	8b 45 0c             	mov    0xc(%ebp),%eax
 80492da:	5d                   	pop    %ebp
 80492db:	c3                   	ret    

080492dc <_ZNKSt6vectorIP7ElementSaIS1_EE4sizeEv>:
 80492dc:	55                   	push   %ebp
 80492dd:	89 e5                	mov    %esp,%ebp
 80492df:	8b 45 08             	mov    0x8(%ebp),%eax
 80492e2:	8b 40 04             	mov    0x4(%eax),%eax
 80492e5:	89 c2                	mov    %eax,%edx
 80492e7:	8b 45 08             	mov    0x8(%ebp),%eax
 80492ea:	8b 00                	mov    (%eax),%eax
 80492ec:	89 d1                	mov    %edx,%ecx
 80492ee:	29 c1                	sub    %eax,%ecx
 80492f0:	89 c8                	mov    %ecx,%eax
 80492f2:	c1 f8 02             	sar    $0x2,%eax
 80492f5:	5d                   	pop    %ebp
 80492f6:	c3                   	ret    
 80492f7:	90                   	nop

080492f8 <_ZNSt6vectorIP7ElementSaIS1_EEixEj>:
 80492f8:	55                   	push   %ebp
 80492f9:	89 e5                	mov    %esp,%ebp
 80492fb:	8b 45 08             	mov    0x8(%ebp),%eax
 80492fe:	8b 00                	mov    (%eax),%eax
 8049300:	8b 55 0c             	mov    0xc(%ebp),%edx
 8049303:	c1 e2 02             	shl    $0x2,%edx
 8049306:	01 d0                	add    %edx,%eax
 8049308:	5d                   	pop    %ebp
 8049309:	c3                   	ret    

0804930a <_ZNSt6vectorIP7ElementSaIS1_EE9push_backERKS1_>:
 804930a:	55                   	push   %ebp
 804930b:	89 e5                	mov    %esp,%ebp
 804930d:	83 ec 28             	sub    $0x28,%esp
 8049310:	8b 45 08             	mov    0x8(%ebp),%eax
 8049313:	8b 50 04             	mov    0x4(%eax),%edx
 8049316:	8b 45 08             	mov    0x8(%ebp),%eax
 8049319:	8b 40 08             	mov    0x8(%eax),%eax
 804931c:	39 c2                	cmp    %eax,%edx
 804931e:	74 2d                	je     804934d <_ZNSt6vectorIP7ElementSaIS1_EE9push_backERKS1_+0x43>
 8049320:	8b 45 08             	mov    0x8(%ebp),%eax
 8049323:	8b 50 04             	mov    0x4(%eax),%edx
 8049326:	8b 45 08             	mov    0x8(%ebp),%eax
 8049329:	8b 4d 0c             	mov    0xc(%ebp),%ecx
 804932c:	89 4c 24 08          	mov    %ecx,0x8(%esp)
 8049330:	89 54 24 04          	mov    %edx,0x4(%esp)
 8049334:	89 04 24             	mov    %eax,(%esp)
 8049337:	e8 ca 00 00 00       	call   8049406 <_ZN9__gnu_cxx14__alloc_traitsISaIP7ElementEE9constructIS2_EEvRS3_PS2_RKT_>
 804933c:	8b 45 08             	mov    0x8(%ebp),%eax
 804933f:	8b 40 04             	mov    0x4(%eax),%eax
 8049342:	8d 50 04             	lea    0x4(%eax),%edx
 8049345:	8b 45 08             	mov    0x8(%ebp),%eax
 8049348:	89 50 04             	mov    %edx,0x4(%eax)
 804934b:	eb 2e                	jmp    804937b <_ZNSt6vectorIP7ElementSaIS1_EE9push_backERKS1_+0x71>
 804934d:	8d 45 f4             	lea    -0xc(%ebp),%eax
 8049350:	8b 55 08             	mov    0x8(%ebp),%edx
 8049353:	89 54 24 04          	mov    %edx,0x4(%esp)
 8049357:	89 04 24             	mov    %eax,(%esp)
 804935a:	e8 69 03 00 00       	call   80496c8 <_ZNSt6vectorIP7ElementSaIS1_EE3endEv>
 804935f:	83 ec 04             	sub    $0x4,%esp
 8049362:	8b 45 0c             	mov    0xc(%ebp),%eax
 8049365:	89 44 24 08          	mov    %eax,0x8(%esp)
 8049369:	8b 45 f4             	mov    -0xc(%ebp),%eax
 804936c:	89 44 24 04          	mov    %eax,0x4(%esp)
 8049370:	8b 45 08             	mov    0x8(%ebp),%eax
 8049373:	89 04 24             	mov    %eax,(%esp)
 8049376:	e8 ad 00 00 00       	call   8049428 <_ZNSt6vectorIP7ElementSaIS1_EE13_M_insert_auxEN9__gnu_cxx17__normal_iteratorIPS1_S3_EERKS1_>
 804937b:	c9                   	leave  
 804937c:	c3                   	ret    
 804937d:	90                   	nop

0804937e <_ZNSt6vectorIP7ElementSaIS1_EEC1Ev>:
 804937e:	55                   	push   %ebp
 804937f:	89 e5                	mov    %esp,%ebp
 8049381:	83 ec 18             	sub    $0x18,%esp
 8049384:	8b 45 08             	mov    0x8(%ebp),%eax
 8049387:	89 04 24             	mov    %eax,(%esp)
 804938a:	e8 6f 03 00 00       	call   80496fe <_ZNSt12_Vector_baseIP7ElementSaIS1_EEC1Ev>
 804938f:	c9                   	leave  
 8049390:	c3                   	ret    
 8049391:	90                   	nop

08049392 <_ZNSt6vectorIP7ElementSaIS1_EED1Ev>:
 8049392:	55                   	push   %ebp
 8049393:	89 e5                	mov    %esp,%ebp
 8049395:	53                   	push   %ebx
 8049396:	83 ec 14             	sub    $0x14,%esp
 8049399:	8b 45 08             	mov    0x8(%ebp),%eax
 804939c:	89 04 24             	mov    %eax,(%esp)
 804939f:	e8 d0 03 00 00       	call   8049774 <_ZNSt12_Vector_baseIP7ElementSaIS1_EE19_M_get_Tp_allocatorEv>
 80493a4:	8b 55 08             	mov    0x8(%ebp),%edx
 80493a7:	8b 4a 04             	mov    0x4(%edx),%ecx
 80493aa:	8b 55 08             	mov    0x8(%ebp),%edx
 80493ad:	8b 12                	mov    (%edx),%edx
 80493af:	89 44 24 08          	mov    %eax,0x8(%esp)
 80493b3:	89 4c 24 04          	mov    %ecx,0x4(%esp)
 80493b7:	89 14 24             	mov    %edx,(%esp)
 80493ba:	e8 bd 03 00 00       	call   804977c <_ZSt8_DestroyIPP7ElementS1_EvT_S3_RSaIT0_E>
 80493bf:	8b 45 08             	mov    0x8(%ebp),%eax
 80493c2:	89 04 24             	mov    %eax,(%esp)
 80493c5:	e8 48 03 00 00       	call   8049712 <_ZNSt12_Vector_baseIP7ElementSaIS1_EED1Ev>
 80493ca:	eb 17                	jmp    80493e3 <_ZNSt6vectorIP7ElementSaIS1_EED1Ev+0x51>
 80493cc:	89 c3                	mov    %eax,%ebx
 80493ce:	8b 45 08             	mov    0x8(%ebp),%eax
 80493d1:	89 04 24             	mov    %eax,(%esp)
 80493d4:	e8 39 03 00 00       	call   8049712 <_ZNSt12_Vector_baseIP7ElementSaIS1_EED1Ev>
 80493d9:	89 d8                	mov    %ebx,%eax
 80493db:	89 04 24             	mov    %eax,(%esp)
 80493de:	e8 ad f8 ff ff       	call   8048c90 <_Unwind_Resume@plt>
 80493e3:	83 c4 14             	add    $0x14,%esp
 80493e6:	5b                   	pop    %ebx
 80493e7:	5d                   	pop    %ebp
 80493e8:	c3                   	ret    
 80493e9:	90                   	nop

080493ea <_ZNSt6vectorIP7ElementSaIS1_EE5clearEv>:
 80493ea:	55                   	push   %ebp
 80493eb:	89 e5                	mov    %esp,%ebp
 80493ed:	83 ec 18             	sub    $0x18,%esp
 80493f0:	8b 45 08             	mov    0x8(%ebp),%eax
 80493f3:	8b 00                	mov    (%eax),%eax
 80493f5:	89 44 24 04          	mov    %eax,0x4(%esp)
 80493f9:	8b 45 08             	mov    0x8(%ebp),%eax
 80493fc:	89 04 24             	mov    %eax,(%esp)
 80493ff:	e8 92 03 00 00       	call   8049796 <_ZNSt6vectorIP7ElementSaIS1_EE15_M_erase_at_endEPS1_>
 8049404:	c9                   	leave  
 8049405:	c3                   	ret    

08049406 <_ZN9__gnu_cxx14__alloc_traitsISaIP7ElementEE9constructIS2_EEvRS3_PS2_RKT_>:
 8049406:	55                   	push   %ebp
 8049407:	89 e5                	mov    %esp,%ebp
 8049409:	83 ec 18             	sub    $0x18,%esp
 804940c:	8b 45 10             	mov    0x10(%ebp),%eax
 804940f:	89 44 24 08          	mov    %eax,0x8(%esp)
 8049413:	8b 45 0c             	mov    0xc(%ebp),%eax
 8049416:	89 44 24 04          	mov    %eax,0x4(%esp)
 804941a:	8b 45 08             	mov    0x8(%ebp),%eax
 804941d:	89 04 24             	mov    %eax,(%esp)
 8049420:	e8 a7 03 00 00       	call   80497cc <_ZN9__gnu_cxx13new_allocatorIP7ElementE9constructEPS2_RKS2_>
 8049425:	c9                   	leave  
 8049426:	c3                   	ret    
 8049427:	90                   	nop

08049428 <_ZNSt6vectorIP7ElementSaIS1_EE13_M_insert_auxEN9__gnu_cxx17__normal_iteratorIPS1_S3_EERKS1_>:
 8049428:	55                   	push   %ebp
 8049429:	89 e5                	mov    %esp,%ebp
 804942b:	56                   	push   %esi
 804942c:	53                   	push   %ebx
 804942d:	83 ec 30             	sub    $0x30,%esp
 8049430:	8b 45 08             	mov    0x8(%ebp),%eax
 8049433:	8b 50 04             	mov    0x4(%eax),%edx
 8049436:	8b 45 08             	mov    0x8(%ebp),%eax
 8049439:	8b 40 08             	mov    0x8(%eax),%eax
 804943c:	39 c2                	cmp    %eax,%edx
 804943e:	74 7d                	je     80494bd <_ZNSt6vectorIP7ElementSaIS1_EE13_M_insert_auxEN9__gnu_cxx17__normal_iteratorIPS1_S3_EERKS1_+0x95>
 8049440:	8b 45 08             	mov    0x8(%ebp),%eax
 8049443:	8b 40 04             	mov    0x4(%eax),%eax
 8049446:	8d 48 fc             	lea    -0x4(%eax),%ecx
 8049449:	8b 45 08             	mov    0x8(%ebp),%eax
 804944c:	8b 50 04             	mov    0x4(%eax),%edx
 804944f:	8b 45 08             	mov    0x8(%ebp),%eax
 8049452:	89 4c 24 08          	mov    %ecx,0x8(%esp)
 8049456:	89 54 24 04          	mov    %edx,0x4(%esp)
 804945a:	89 04 24             	mov    %eax,(%esp)
 804945d:	e8 a4 ff ff ff       	call   8049406 <_ZN9__gnu_cxx14__alloc_traitsISaIP7ElementEE9constructIS2_EEvRS3_PS2_RKT_>
 8049462:	8b 45 08             	mov    0x8(%ebp),%eax
 8049465:	8b 40 04             	mov    0x4(%eax),%eax
 8049468:	8d 50 04             	lea    0x4(%eax),%edx
 804946b:	8b 45 08             	mov    0x8(%ebp),%eax
 804946e:	89 50 04             	mov    %edx,0x4(%eax)
 8049471:	8b 45 10             	mov    0x10(%ebp),%eax
 8049474:	8b 00                	mov    (%eax),%eax
 8049476:	89 45 f0             	mov    %eax,-0x10(%ebp)
 8049479:	8b 45 08             	mov    0x8(%ebp),%eax
 804947c:	8b 40 04             	mov    0x4(%eax),%eax
 804947f:	8d 70 fc             	lea    -0x4(%eax),%esi
 8049482:	8b 45 08             	mov    0x8(%ebp),%eax
 8049485:	8b 40 04             	mov    0x4(%eax),%eax
 8049488:	8d 58 f8             	lea    -0x8(%eax),%ebx
 804948b:	8d 45 0c             	lea    0xc(%ebp),%eax
 804948e:	89 04 24             	mov    %eax,(%esp)
 8049491:	e8 5c 03 00 00       	call   80497f2 <_ZNK9__gnu_cxx17__normal_iteratorIPP7ElementSt6vectorIS2_SaIS2_EEE4baseEv>
 8049496:	8b 00                	mov    (%eax),%eax
 8049498:	89 74 24 08          	mov    %esi,0x8(%esp)
 804949c:	89 5c 24 04          	mov    %ebx,0x4(%esp)
 80494a0:	89 04 24             	mov    %eax,(%esp)
 80494a3:	e8 52 03 00 00       	call   80497fa <_ZSt13copy_backwardIPP7ElementS2_ET0_T_S4_S3_>
 80494a8:	8d 45 0c             	lea    0xc(%ebp),%eax
 80494ab:	89 04 24             	mov    %eax,(%esp)
 80494ae:	e8 7f 03 00 00       	call   8049832 <_ZNK9__gnu_cxx17__normal_iteratorIPP7ElementSt6vectorIS2_SaIS2_EEEdeEv>
 80494b3:	8b 55 f0             	mov    -0x10(%ebp),%edx
 80494b6:	89 10                	mov    %edx,(%eax)
 80494b8:	e9 03 02 00 00       	jmp    80496c0 <_ZNSt6vectorIP7ElementSaIS1_EE13_M_insert_auxEN9__gnu_cxx17__normal_iteratorIPS1_S3_EERKS1_+0x298>
 80494bd:	c7 44 24 08 33 a5 04 	movl   $0x804a533,0x8(%esp)
 80494c4:	08 
 80494c5:	c7 44 24 04 01 00 00 	movl   $0x1,0x4(%esp)
 80494cc:	00 
 80494cd:	8b 45 08             	mov    0x8(%ebp),%eax
 80494d0:	89 04 24             	mov    %eax,(%esp)
 80494d3:	e8 64 03 00 00       	call   804983c <_ZNKSt6vectorIP7ElementSaIS1_EE12_M_check_lenEjPKc>
 80494d8:	89 45 ec             	mov    %eax,-0x14(%ebp)
 80494db:	8d 45 e0             	lea    -0x20(%ebp),%eax
 80494de:	8b 55 08             	mov    0x8(%ebp),%edx
 80494e1:	89 54 24 04          	mov    %edx,0x4(%esp)
 80494e5:	89 04 24             	mov    %eax,(%esp)
 80494e8:	e8 f3 03 00 00       	call   80498e0 <_ZNSt6vectorIP7ElementSaIS1_EE5beginEv>
 80494ed:	83 ec 04             	sub    $0x4,%esp
 80494f0:	8d 45 e0             	lea    -0x20(%ebp),%eax
 80494f3:	89 44 24 04          	mov    %eax,0x4(%esp)
 80494f7:	8d 45 0c             	lea    0xc(%ebp),%eax
 80494fa:	89 04 24             	mov    %eax,(%esp)
 80494fd:	e8 fd 03 00 00       	call   80498ff <_ZN9__gnu_cxxmiIPP7ElementSt6vectorIS2_SaIS2_EEEENS_17__normal_iteratorIT_T0_E15difference_typeERKSA_SD_>
 8049502:	89 45 e8             	mov    %eax,-0x18(%ebp)
 8049505:	8b 45 08             	mov    0x8(%ebp),%eax
 8049508:	8b 55 ec             	mov    -0x14(%ebp),%edx
 804950b:	89 54 24 04          	mov    %edx,0x4(%esp)
 804950f:	89 04 24             	mov    %eax,(%esp)
 8049512:	e8 1b 04 00 00       	call   8049932 <_ZNSt12_Vector_baseIP7ElementSaIS1_EE11_M_allocateEj>
 8049517:	89 45 e4             	mov    %eax,-0x1c(%ebp)
 804951a:	8b 45 e4             	mov    -0x1c(%ebp),%eax
 804951d:	89 45 f4             	mov    %eax,-0xc(%ebp)
 8049520:	8b 45 e8             	mov    -0x18(%ebp),%eax
 8049523:	8d 14 85 00 00 00 00 	lea    0x0(,%eax,4),%edx
 804952a:	8b 45 e4             	mov    -0x1c(%ebp),%eax
 804952d:	8d 0c 02             	lea    (%edx,%eax,1),%ecx
 8049530:	8b 45 08             	mov    0x8(%ebp),%eax
 8049533:	8b 55 10             	mov    0x10(%ebp),%edx
 8049536:	89 54 24 08          	mov    %edx,0x8(%esp)
 804953a:	89 4c 24 04          	mov    %ecx,0x4(%esp)
 804953e:	89 04 24             	mov    %eax,(%esp)
 8049541:	e8 c0 fe ff ff       	call   8049406 <_ZN9__gnu_cxx14__alloc_traitsISaIP7ElementEE9constructIS2_EEvRS3_PS2_RKT_>
 8049546:	c7 45 f4 00 00 00 00 	movl   $0x0,-0xc(%ebp)
 804954d:	8b 45 08             	mov    0x8(%ebp),%eax
 8049550:	89 04 24             	mov    %eax,(%esp)
 8049553:	e8 1c 02 00 00       	call   8049774 <_ZNSt12_Vector_baseIP7ElementSaIS1_EE19_M_get_Tp_allocatorEv>
 8049558:	89 c3                	mov    %eax,%ebx
 804955a:	8d 45 0c             	lea    0xc(%ebp),%eax
 804955d:	89 04 24             	mov    %eax,(%esp)
 8049560:	e8 8d 02 00 00       	call   80497f2 <_ZNK9__gnu_cxx17__normal_iteratorIPP7ElementSt6vectorIS2_SaIS2_EEE4baseEv>
 8049565:	8b 10                	mov    (%eax),%edx
 8049567:	8b 45 08             	mov    0x8(%ebp),%eax
 804956a:	8b 00                	mov    (%eax),%eax
 804956c:	89 5c 24 0c          	mov    %ebx,0xc(%esp)
 8049570:	8b 4d e4             	mov    -0x1c(%ebp),%ecx
 8049573:	89 4c 24 08          	mov    %ecx,0x8(%esp)
 8049577:	89 54 24 04          	mov    %edx,0x4(%esp)
 804957b:	89 04 24             	mov    %eax,(%esp)
 804957e:	e8 de 03 00 00       	call   8049961 <_ZSt34__uninitialized_move_if_noexcept_aIPP7ElementS2_SaIS1_EET0_T_S5_S4_RT1_>
 8049583:	89 45 f4             	mov    %eax,-0xc(%ebp)
 8049586:	83 45 f4 04          	addl   $0x4,-0xc(%ebp)
 804958a:	8b 45 08             	mov    0x8(%ebp),%eax
 804958d:	89 04 24             	mov    %eax,(%esp)
 8049590:	e8 df 01 00 00       	call   8049774 <_ZNSt12_Vector_baseIP7ElementSaIS1_EE19_M_get_Tp_allocatorEv>
 8049595:	89 c3                	mov    %eax,%ebx
 8049597:	8b 45 08             	mov    0x8(%ebp),%eax
 804959a:	8b 70 04             	mov    0x4(%eax),%esi
 804959d:	8d 45 0c             	lea    0xc(%ebp),%eax
 80495a0:	89 04 24             	mov    %eax,(%esp)
 80495a3:	e8 4a 02 00 00       	call   80497f2 <_ZNK9__gnu_cxx17__normal_iteratorIPP7ElementSt6vectorIS2_SaIS2_EEE4baseEv>
 80495a8:	8b 00                	mov    (%eax),%eax
 80495aa:	89 5c 24 0c          	mov    %ebx,0xc(%esp)
 80495ae:	8b 55 f4             	mov    -0xc(%ebp),%edx
 80495b1:	89 54 24 08          	mov    %edx,0x8(%esp)
 80495b5:	89 74 24 04          	mov    %esi,0x4(%esp)
 80495b9:	89 04 24             	mov    %eax,(%esp)
 80495bc:	e8 a0 03 00 00       	call   8049961 <_ZSt34__uninitialized_move_if_noexcept_aIPP7ElementS2_SaIS1_EET0_T_S5_S4_RT1_>
 80495c1:	89 45 f4             	mov    %eax,-0xc(%ebp)
 80495c4:	8b 45 08             	mov    0x8(%ebp),%eax
 80495c7:	89 04 24             	mov    %eax,(%esp)
 80495ca:	e8 a5 01 00 00       	call   8049774 <_ZNSt12_Vector_baseIP7ElementSaIS1_EE19_M_get_Tp_allocatorEv>
 80495cf:	8b 55 08             	mov    0x8(%ebp),%edx
 80495d2:	8b 4a 04             	mov    0x4(%edx),%ecx
 80495d5:	8b 55 08             	mov    0x8(%ebp),%edx
 80495d8:	8b 12                	mov    (%edx),%edx
 80495da:	89 44 24 08          	mov    %eax,0x8(%esp)
 80495de:	89 4c 24 04          	mov    %ecx,0x4(%esp)
 80495e2:	89 14 24             	mov    %edx,(%esp)
 80495e5:	e8 92 01 00 00       	call   804977c <_ZSt8_DestroyIPP7ElementS1_EvT_S3_RSaIT0_E>
 80495ea:	8b 45 08             	mov    0x8(%ebp),%eax
 80495ed:	8b 40 08             	mov    0x8(%eax),%eax
 80495f0:	89 c2                	mov    %eax,%edx
 80495f2:	8b 45 08             	mov    0x8(%ebp),%eax
 80495f5:	8b 00                	mov    (%eax),%eax
 80495f7:	89 d1                	mov    %edx,%ecx
 80495f9:	29 c1                	sub    %eax,%ecx
 80495fb:	89 c8                	mov    %ecx,%eax
 80495fd:	c1 f8 02             	sar    $0x2,%eax
 8049600:	89 c1                	mov    %eax,%ecx
 8049602:	8b 45 08             	mov    0x8(%ebp),%eax
 8049605:	8b 10                	mov    (%eax),%edx
 8049607:	8b 45 08             	mov    0x8(%ebp),%eax
 804960a:	89 4c 24 08          	mov    %ecx,0x8(%esp)
 804960e:	89 54 24 04          	mov    %edx,0x4(%esp)
 8049612:	89 04 24             	mov    %eax,(%esp)
 8049615:	e8 8a 03 00 00       	call   80499a4 <_ZNSt12_Vector_baseIP7ElementSaIS1_EE13_M_deallocateEPS1_j>
 804961a:	8b 45 08             	mov    0x8(%ebp),%eax
 804961d:	8b 55 e4             	mov    -0x1c(%ebp),%edx
 8049620:	89 10                	mov    %edx,(%eax)
 8049622:	8b 45 08             	mov    0x8(%ebp),%eax
 8049625:	8b 55 f4             	mov    -0xc(%ebp),%edx
 8049628:	89 50 04             	mov    %edx,0x4(%eax)
 804962b:	8b 45 ec             	mov    -0x14(%ebp),%eax
 804962e:	8d 14 85 00 00 00 00 	lea    0x0(,%eax,4),%edx
 8049635:	8b 45 e4             	mov    -0x1c(%ebp),%eax
 8049638:	01 c2                	add    %eax,%edx
 804963a:	8b 45 08             	mov    0x8(%ebp),%eax
 804963d:	89 50 08             	mov    %edx,0x8(%eax)
 8049640:	eb 7e                	jmp    80496c0 <_ZNSt6vectorIP7ElementSaIS1_EE13_M_insert_auxEN9__gnu_cxx17__normal_iteratorIPS1_S3_EERKS1_+0x298>
 8049642:	89 c3                	mov    %eax,%ebx
 8049644:	e8 e7 f5 ff ff       	call   8048c30 <__cxa_end_catch@plt>
 8049649:	89 d8                	mov    %ebx,%eax
 804964b:	89 04 24             	mov    %eax,(%esp)
 804964e:	e8 3d f6 ff ff       	call   8048c90 <_Unwind_Resume@plt>
 8049653:	89 04 24             	mov    %eax,(%esp)
 8049656:	e8 05 f6 ff ff       	call   8048c60 <__cxa_begin_catch@plt>
 804965b:	83 7d f4 00          	cmpl   $0x0,-0xc(%ebp)
 804965f:	75 20                	jne    8049681 <_ZNSt6vectorIP7ElementSaIS1_EE13_M_insert_auxEN9__gnu_cxx17__normal_iteratorIPS1_S3_EERKS1_+0x259>
 8049661:	8b 45 e8             	mov    -0x18(%ebp),%eax
 8049664:	8d 14 85 00 00 00 00 	lea    0x0(,%eax,4),%edx
 804966b:	8b 45 e4             	mov    -0x1c(%ebp),%eax
 804966e:	01 c2                	add    %eax,%edx
 8049670:	8b 45 08             	mov    0x8(%ebp),%eax
 8049673:	89 54 24 04          	mov    %edx,0x4(%esp)
 8049677:	89 04 24             	mov    %eax,(%esp)
 804967a:	e8 0a 03 00 00       	call   8049989 <_ZN9__gnu_cxx14__alloc_traitsISaIP7ElementEE7destroyERS3_PS2_>
 804967f:	eb 21                	jmp    80496a2 <_ZNSt6vectorIP7ElementSaIS1_EE13_M_insert_auxEN9__gnu_cxx17__normal_iteratorIPS1_S3_EERKS1_+0x27a>
 8049681:	8b 45 08             	mov    0x8(%ebp),%eax
 8049684:	89 04 24             	mov    %eax,(%esp)
 8049687:	e8 e8 00 00 00       	call   8049774 <_ZNSt12_Vector_baseIP7ElementSaIS1_EE19_M_get_Tp_allocatorEv>
 804968c:	89 44 24 08          	mov    %eax,0x8(%esp)
 8049690:	8b 45 f4             	mov    -0xc(%ebp),%eax
 8049693:	89 44 24 04          	mov    %eax,0x4(%esp)
 8049697:	8b 45 e4             	mov    -0x1c(%ebp),%eax
 804969a:	89 04 24             	mov    %eax,(%esp)
 804969d:	e8 da 00 00 00       	call   804977c <_ZSt8_DestroyIPP7ElementS1_EvT_S3_RSaIT0_E>
 80496a2:	8b 45 08             	mov    0x8(%ebp),%eax
 80496a5:	8b 55 ec             	mov    -0x14(%ebp),%edx
 80496a8:	89 54 24 08          	mov    %edx,0x8(%esp)
 80496ac:	8b 55 e4             	mov    -0x1c(%ebp),%edx
 80496af:	89 54 24 04          	mov    %edx,0x4(%esp)
 80496b3:	89 04 24             	mov    %eax,(%esp)
 80496b6:	e8 e9 02 00 00       	call   80499a4 <_ZNSt12_Vector_baseIP7ElementSaIS1_EE13_M_deallocateEPS1_j>
 80496bb:	e8 60 f4 ff ff       	call   8048b20 <__cxa_rethrow@plt>
 80496c0:	8d 65 f8             	lea    -0x8(%ebp),%esp
 80496c3:	5b                   	pop    %ebx
 80496c4:	5e                   	pop    %esi
 80496c5:	5d                   	pop    %ebp
 80496c6:	c3                   	ret    
 80496c7:	90                   	nop

080496c8 <_ZNSt6vectorIP7ElementSaIS1_EE3endEv>:
 80496c8:	55                   	push   %ebp
 80496c9:	89 e5                	mov    %esp,%ebp
 80496cb:	83 ec 18             	sub    $0x18,%esp
 80496ce:	8b 45 0c             	mov    0xc(%ebp),%eax
 80496d1:	83 c0 04             	add    $0x4,%eax
 80496d4:	89 44 24 04          	mov    %eax,0x4(%esp)
 80496d8:	8b 45 08             	mov    0x8(%ebp),%eax
 80496db:	89 04 24             	mov    %eax,(%esp)
 80496de:	e8 e9 02 00 00       	call   80499cc <_ZN9__gnu_cxx17__normal_iteratorIPP7ElementSt6vectorIS2_SaIS2_EEEC1ERKS3_>
 80496e3:	8b 45 08             	mov    0x8(%ebp),%eax
 80496e6:	c9                   	leave  
 80496e7:	c2 04 00             	ret    $0x4

080496ea <_ZNSt12_Vector_baseIP7ElementSaIS1_EE12_Vector_implD1Ev>:
 80496ea:	55                   	push   %ebp
 80496eb:	89 e5                	mov    %esp,%ebp
 80496ed:	83 ec 18             	sub    $0x18,%esp
 80496f0:	8b 45 08             	mov    0x8(%ebp),%eax
 80496f3:	89 04 24             	mov    %eax,(%esp)
 80496f6:	e8 11 03 00 00       	call   8049a0c <_ZNSaIP7ElementED1Ev>
 80496fb:	c9                   	leave  
 80496fc:	c3                   	ret    
 80496fd:	90                   	nop

080496fe <_ZNSt12_Vector_baseIP7ElementSaIS1_EEC1Ev>:
 80496fe:	55                   	push   %ebp
 80496ff:	89 e5                	mov    %esp,%ebp
 8049701:	83 ec 18             	sub    $0x18,%esp
 8049704:	8b 45 08             	mov    0x8(%ebp),%eax
 8049707:	89 04 24             	mov    %eax,(%esp)
 804970a:	e8 cd 02 00 00       	call   80499dc <_ZNSt12_Vector_baseIP7ElementSaIS1_EE12_Vector_implC1Ev>
 804970f:	c9                   	leave  
 8049710:	c3                   	ret    
 8049711:	90                   	nop

08049712 <_ZNSt12_Vector_baseIP7ElementSaIS1_EED1Ev>:
 8049712:	55                   	push   %ebp
 8049713:	89 e5                	mov    %esp,%ebp
 8049715:	53                   	push   %ebx
 8049716:	83 ec 14             	sub    $0x14,%esp
 8049719:	8b 45 08             	mov    0x8(%ebp),%eax
 804971c:	8b 40 08             	mov    0x8(%eax),%eax
 804971f:	89 c2                	mov    %eax,%edx
 8049721:	8b 45 08             	mov    0x8(%ebp),%eax
 8049724:	8b 00                	mov    (%eax),%eax
 8049726:	89 d1                	mov    %edx,%ecx
 8049728:	29 c1                	sub    %eax,%ecx
 804972a:	89 c8                	mov    %ecx,%eax
 804972c:	c1 f8 02             	sar    $0x2,%eax
 804972f:	89 c2                	mov    %eax,%edx
 8049731:	8b 45 08             	mov    0x8(%ebp),%eax
 8049734:	8b 00                	mov    (%eax),%eax
 8049736:	89 54 24 08          	mov    %edx,0x8(%esp)
 804973a:	89 44 24 04          	mov    %eax,0x4(%esp)
 804973e:	8b 45 08             	mov    0x8(%ebp),%eax
 8049741:	89 04 24             	mov    %eax,(%esp)
 8049744:	e8 5b 02 00 00       	call   80499a4 <_ZNSt12_Vector_baseIP7ElementSaIS1_EE13_M_deallocateEPS1_j>
 8049749:	8b 45 08             	mov    0x8(%ebp),%eax
 804974c:	89 04 24             	mov    %eax,(%esp)
 804974f:	e8 96 ff ff ff       	call   80496ea <_ZNSt12_Vector_baseIP7ElementSaIS1_EE12_Vector_implD1Ev>
 8049754:	eb 17                	jmp    804976d <_ZNSt12_Vector_baseIP7ElementSaIS1_EED1Ev+0x5b>
 8049756:	89 c3                	mov    %eax,%ebx
 8049758:	8b 45 08             	mov    0x8(%ebp),%eax
 804975b:	89 04 24             	mov    %eax,(%esp)
 804975e:	e8 87 ff ff ff       	call   80496ea <_ZNSt12_Vector_baseIP7ElementSaIS1_EE12_Vector_implD1Ev>
 8049763:	89 d8                	mov    %ebx,%eax
 8049765:	89 04 24             	mov    %eax,(%esp)
 8049768:	e8 23 f5 ff ff       	call   8048c90 <_Unwind_Resume@plt>
 804976d:	83 c4 14             	add    $0x14,%esp
 8049770:	5b                   	pop    %ebx
 8049771:	5d                   	pop    %ebp
 8049772:	c3                   	ret    
 8049773:	90                   	nop

08049774 <_ZNSt12_Vector_baseIP7ElementSaIS1_EE19_M_get_Tp_allocatorEv>:
 8049774:	55                   	push   %ebp
 8049775:	89 e5                	mov    %esp,%ebp
 8049777:	8b 45 08             	mov    0x8(%ebp),%eax
 804977a:	5d                   	pop    %ebp
 804977b:	c3                   	ret    

0804977c <_ZSt8_DestroyIPP7ElementS1_EvT_S3_RSaIT0_E>:
 804977c:	55                   	push   %ebp
 804977d:	89 e5                	mov    %esp,%ebp
 804977f:	83 ec 18             	sub    $0x18,%esp
 8049782:	8b 45 0c             	mov    0xc(%ebp),%eax
 8049785:	89 44 24 04          	mov    %eax,0x4(%esp)
 8049789:	8b 45 08             	mov    0x8(%ebp),%eax
 804978c:	89 04 24             	mov    %eax,(%esp)
 804978f:	e8 8b 02 00 00       	call   8049a1f <_ZSt8_DestroyIPP7ElementEvT_S3_>
 8049794:	c9                   	leave  
 8049795:	c3                   	ret    

08049796 <_ZNSt6vectorIP7ElementSaIS1_EE15_M_erase_at_endEPS1_>:
 8049796:	55                   	push   %ebp
 8049797:	89 e5                	mov    %esp,%ebp
 8049799:	83 ec 18             	sub    $0x18,%esp
 804979c:	8b 45 08             	mov    0x8(%ebp),%eax
 804979f:	89 04 24             	mov    %eax,(%esp)
 80497a2:	e8 cd ff ff ff       	call   8049774 <_ZNSt12_Vector_baseIP7ElementSaIS1_EE19_M_get_Tp_allocatorEv>
 80497a7:	8b 55 08             	mov    0x8(%ebp),%edx
 80497aa:	8b 52 04             	mov    0x4(%edx),%edx
 80497ad:	89 44 24 08          	mov    %eax,0x8(%esp)
 80497b1:	89 54 24 04          	mov    %edx,0x4(%esp)
 80497b5:	8b 45 0c             	mov    0xc(%ebp),%eax
 80497b8:	89 04 24             	mov    %eax,(%esp)
 80497bb:	e8 bc ff ff ff       	call   804977c <_ZSt8_DestroyIPP7ElementS1_EvT_S3_RSaIT0_E>
 80497c0:	8b 45 08             	mov    0x8(%ebp),%eax
 80497c3:	8b 55 0c             	mov    0xc(%ebp),%edx
 80497c6:	89 50 04             	mov    %edx,0x4(%eax)
 80497c9:	c9                   	leave  
 80497ca:	c3                   	ret    
 80497cb:	90                   	nop

080497cc <_ZN9__gnu_cxx13new_allocatorIP7ElementE9constructEPS2_RKS2_>:
 80497cc:	55                   	push   %ebp
 80497cd:	89 e5                	mov    %esp,%ebp
 80497cf:	83 ec 18             	sub    $0x18,%esp
 80497d2:	8b 45 0c             	mov    0xc(%ebp),%eax
 80497d5:	89 44 24 04          	mov    %eax,0x4(%esp)
 80497d9:	c7 04 24 04 00 00 00 	movl   $0x4,(%esp)
 80497e0:	e8 ef fa ff ff       	call   80492d4 <_ZnwjPv>
 80497e5:	85 c0                	test   %eax,%eax
 80497e7:	74 07                	je     80497f0 <_ZN9__gnu_cxx13new_allocatorIP7ElementE9constructEPS2_RKS2_+0x24>
 80497e9:	8b 55 10             	mov    0x10(%ebp),%edx
 80497ec:	8b 12                	mov    (%edx),%edx
 80497ee:	89 10                	mov    %edx,(%eax)
 80497f0:	c9                   	leave  
 80497f1:	c3                   	ret    

080497f2 <_ZNK9__gnu_cxx17__normal_iteratorIPP7ElementSt6vectorIS2_SaIS2_EEE4baseEv>:
 80497f2:	55                   	push   %ebp
 80497f3:	89 e5                	mov    %esp,%ebp
 80497f5:	8b 45 08             	mov    0x8(%ebp),%eax
 80497f8:	5d                   	pop    %ebp
 80497f9:	c3                   	ret    

080497fa <_ZSt13copy_backwardIPP7ElementS2_ET0_T_S4_S3_>:
 80497fa:	55                   	push   %ebp
 80497fb:	89 e5                	mov    %esp,%ebp
 80497fd:	53                   	push   %ebx
 80497fe:	83 ec 14             	sub    $0x14,%esp
 8049801:	8b 45 0c             	mov    0xc(%ebp),%eax
 8049804:	89 04 24             	mov    %eax,(%esp)
 8049807:	e8 2d 02 00 00       	call   8049a39 <_ZSt12__miter_baseIPP7ElementENSt11_Miter_baseIT_E13iterator_typeES4_>
 804980c:	89 c3                	mov    %eax,%ebx
 804980e:	8b 45 08             	mov    0x8(%ebp),%eax
 8049811:	89 04 24             	mov    %eax,(%esp)
 8049814:	e8 20 02 00 00       	call   8049a39 <_ZSt12__miter_baseIPP7ElementENSt11_Miter_baseIT_E13iterator_typeES4_>
 8049819:	8b 55 10             	mov    0x10(%ebp),%edx
 804981c:	89 54 24 08          	mov    %edx,0x8(%esp)
 8049820:	89 5c 24 04          	mov    %ebx,0x4(%esp)
 8049824:	89 04 24             	mov    %eax,(%esp)
 8049827:	e8 20 02 00 00       	call   8049a4c <_ZSt23__copy_move_backward_a2ILb0EPP7ElementS2_ET1_T0_S4_S3_>
 804982c:	83 c4 14             	add    $0x14,%esp
 804982f:	5b                   	pop    %ebx
 8049830:	5d                   	pop    %ebp
 8049831:	c3                   	ret    

08049832 <_ZNK9__gnu_cxx17__normal_iteratorIPP7ElementSt6vectorIS2_SaIS2_EEEdeEv>:
 8049832:	55                   	push   %ebp
 8049833:	89 e5                	mov    %esp,%ebp
 8049835:	8b 45 08             	mov    0x8(%ebp),%eax
 8049838:	8b 00                	mov    (%eax),%eax
 804983a:	5d                   	pop    %ebp
 804983b:	c3                   	ret    

0804983c <_ZNKSt6vectorIP7ElementSaIS1_EE12_M_check_lenEjPKc>:
 804983c:	55                   	push   %ebp
 804983d:	89 e5                	mov    %esp,%ebp
 804983f:	53                   	push   %ebx
 8049840:	83 ec 24             	sub    $0x24,%esp
 8049843:	8b 45 08             	mov    0x8(%ebp),%eax
 8049846:	89 04 24             	mov    %eax,(%esp)
 8049849:	e8 42 02 00 00       	call   8049a90 <_ZNKSt6vectorIP7ElementSaIS1_EE8max_sizeEv>
 804984e:	89 c3                	mov    %eax,%ebx
 8049850:	8b 45 08             	mov    0x8(%ebp),%eax
 8049853:	89 04 24             	mov    %eax,(%esp)
 8049856:	e8 81 fa ff ff       	call   80492dc <_ZNKSt6vectorIP7ElementSaIS1_EE4sizeEv>
 804985b:	89 da                	mov    %ebx,%edx
 804985d:	29 c2                	sub    %eax,%edx
 804985f:	8b 45 0c             	mov    0xc(%ebp),%eax
 8049862:	39 c2                	cmp    %eax,%edx
 8049864:	0f 92 c0             	setb   %al
 8049867:	84 c0                	test   %al,%al
 8049869:	74 0b                	je     8049876 <_ZNKSt6vectorIP7ElementSaIS1_EE12_M_check_lenEjPKc+0x3a>
 804986b:	8b 45 10             	mov    0x10(%ebp),%eax
 804986e:	89 04 24             	mov    %eax,(%esp)
 8049871:	e8 4a f2 ff ff       	call   8048ac0 <_ZSt20__throw_length_errorPKc@plt>
 8049876:	8b 45 08             	mov    0x8(%ebp),%eax
 8049879:	89 04 24             	mov    %eax,(%esp)
 804987c:	e8 5b fa ff ff       	call   80492dc <_ZNKSt6vectorIP7ElementSaIS1_EE4sizeEv>
 8049881:	89 c3                	mov    %eax,%ebx
 8049883:	8b 45 08             	mov    0x8(%ebp),%eax
 8049886:	89 04 24             	mov    %eax,(%esp)
 8049889:	e8 4e fa ff ff       	call   80492dc <_ZNKSt6vectorIP7ElementSaIS1_EE4sizeEv>
 804988e:	89 45 f0             	mov    %eax,-0x10(%ebp)
 8049891:	8d 45 0c             	lea    0xc(%ebp),%eax
 8049894:	89 44 24 04          	mov    %eax,0x4(%esp)
 8049898:	8d 45 f0             	lea    -0x10(%ebp),%eax
 804989b:	89 04 24             	mov    %eax,(%esp)
 804989e:	e8 08 02 00 00       	call   8049aab <_ZSt3maxIjERKT_S2_S2_>
 80498a3:	8b 00                	mov    (%eax),%eax
 80498a5:	01 d8                	add    %ebx,%eax
 80498a7:	89 45 f4             	mov    %eax,-0xc(%ebp)
 80498aa:	8b 45 08             	mov    0x8(%ebp),%eax
 80498ad:	89 04 24             	mov    %eax,(%esp)
 80498b0:	e8 27 fa ff ff       	call   80492dc <_ZNKSt6vectorIP7ElementSaIS1_EE4sizeEv>
 80498b5:	3b 45 f4             	cmp    -0xc(%ebp),%eax
 80498b8:	77 10                	ja     80498ca <_ZNKSt6vectorIP7ElementSaIS1_EE12_M_check_lenEjPKc+0x8e>
 80498ba:	8b 45 08             	mov    0x8(%ebp),%eax
 80498bd:	89 04 24             	mov    %eax,(%esp)
 80498c0:	e8 cb 01 00 00       	call   8049a90 <_ZNKSt6vectorIP7ElementSaIS1_EE8max_sizeEv>
 80498c5:	3b 45 f4             	cmp    -0xc(%ebp),%eax
 80498c8:	73 0d                	jae    80498d7 <_ZNKSt6vectorIP7ElementSaIS1_EE12_M_check_lenEjPKc+0x9b>
 80498ca:	8b 45 08             	mov    0x8(%ebp),%eax
 80498cd:	89 04 24             	mov    %eax,(%esp)
 80498d0:	e8 bb 01 00 00       	call   8049a90 <_ZNKSt6vectorIP7ElementSaIS1_EE8max_sizeEv>
 80498d5:	eb 03                	jmp    80498da <_ZNKSt6vectorIP7ElementSaIS1_EE12_M_check_lenEjPKc+0x9e>
 80498d7:	8b 45 f4             	mov    -0xc(%ebp),%eax
 80498da:	83 c4 24             	add    $0x24,%esp
 80498dd:	5b                   	pop    %ebx
 80498de:	5d                   	pop    %ebp
 80498df:	c3                   	ret    

080498e0 <_ZNSt6vectorIP7ElementSaIS1_EE5beginEv>:
 80498e0:	55                   	push   %ebp
 80498e1:	89 e5                	mov    %esp,%ebp
 80498e3:	83 ec 18             	sub    $0x18,%esp
 80498e6:	8b 45 0c             	mov    0xc(%ebp),%eax
 80498e9:	89 44 24 04          	mov    %eax,0x4(%esp)
 80498ed:	8b 45 08             	mov    0x8(%ebp),%eax
 80498f0:	89 04 24             	mov    %eax,(%esp)
 80498f3:	e8 d4 00 00 00       	call   80499cc <_ZN9__gnu_cxx17__normal_iteratorIPP7ElementSt6vectorIS2_SaIS2_EEEC1ERKS3_>
 80498f8:	8b 45 08             	mov    0x8(%ebp),%eax
 80498fb:	c9                   	leave  
 80498fc:	c2 04 00             	ret    $0x4

080498ff <_ZN9__gnu_cxxmiIPP7ElementSt6vectorIS2_SaIS2_EEEENS_17__normal_iteratorIT_T0_E15difference_typeERKSA_SD_>:
 80498ff:	55                   	push   %ebp
 8049900:	89 e5                	mov    %esp,%ebp
 8049902:	53                   	push   %ebx
 8049903:	83 ec 14             	sub    $0x14,%esp
 8049906:	8b 45 08             	mov    0x8(%ebp),%eax
 8049909:	89 04 24             	mov    %eax,(%esp)
 804990c:	e8 e1 fe ff ff       	call   80497f2 <_ZNK9__gnu_cxx17__normal_iteratorIPP7ElementSt6vectorIS2_SaIS2_EEE4baseEv>
 8049911:	8b 00                	mov    (%eax),%eax
 8049913:	89 c3                	mov    %eax,%ebx
 8049915:	8b 45 0c             	mov    0xc(%ebp),%eax
 8049918:	89 04 24             	mov    %eax,(%esp)
 804991b:	e8 d2 fe ff ff       	call   80497f2 <_ZNK9__gnu_cxx17__normal_iteratorIPP7ElementSt6vectorIS2_SaIS2_EEE4baseEv>
 8049920:	8b 00                	mov    (%eax),%eax
 8049922:	89 da                	mov    %ebx,%edx
 8049924:	29 c2                	sub    %eax,%edx
 8049926:	89 d0                	mov    %edx,%eax
 8049928:	c1 f8 02             	sar    $0x2,%eax
 804992b:	83 c4 14             	add    $0x14,%esp
 804992e:	5b                   	pop    %ebx
 804992f:	5d                   	pop    %ebp
 8049930:	c3                   	ret    
 8049931:	90                   	nop

08049932 <_ZNSt12_Vector_baseIP7ElementSaIS1_EE11_M_allocateEj>:
 8049932:	55                   	push   %ebp
 8049933:	89 e5                	mov    %esp,%ebp
 8049935:	83 ec 18             	sub    $0x18,%esp
 8049938:	83 7d 0c 00          	cmpl   $0x0,0xc(%ebp)
 804993c:	74 1c                	je     804995a <_ZNSt12_Vector_baseIP7ElementSaIS1_EE11_M_allocateEj+0x28>
 804993e:	8b 45 08             	mov    0x8(%ebp),%eax
 8049941:	c7 44 24 08 00 00 00 	movl   $0x0,0x8(%esp)
 8049948:	00 
 8049949:	8b 55 0c             	mov    0xc(%ebp),%edx
 804994c:	89 54 24 04          	mov    %edx,0x4(%esp)
 8049950:	89 04 24             	mov    %eax,(%esp)
 8049953:	e8 6e 01 00 00       	call   8049ac6 <_ZN9__gnu_cxx13new_allocatorIP7ElementE8allocateEjPKv>
 8049958:	eb 05                	jmp    804995f <_ZNSt12_Vector_baseIP7ElementSaIS1_EE11_M_allocateEj+0x2d>
 804995a:	b8 00 00 00 00       	mov    $0x0,%eax
 804995f:	c9                   	leave  
 8049960:	c3                   	ret    

08049961 <_ZSt34__uninitialized_move_if_noexcept_aIPP7ElementS2_SaIS1_EET0_T_S5_S4_RT1_>:
 8049961:	55                   	push   %ebp
 8049962:	89 e5                	mov    %esp,%ebp
 8049964:	83 ec 18             	sub    $0x18,%esp
 8049967:	8b 45 14             	mov    0x14(%ebp),%eax
 804996a:	89 44 24 0c          	mov    %eax,0xc(%esp)
 804996e:	8b 45 10             	mov    0x10(%ebp),%eax
 8049971:	89 44 24 08          	mov    %eax,0x8(%esp)
 8049975:	8b 45 0c             	mov    0xc(%ebp),%eax
 8049978:	89 44 24 04          	mov    %eax,0x4(%esp)
 804997c:	8b 45 08             	mov    0x8(%ebp),%eax
 804997f:	89 04 24             	mov    %eax,(%esp)
 8049982:	e8 6f 01 00 00       	call   8049af6 <_ZSt22__uninitialized_copy_aIPP7ElementS2_S1_ET0_T_S4_S3_RSaIT1_E>
 8049987:	c9                   	leave  
 8049988:	c3                   	ret    

08049989 <_ZN9__gnu_cxx14__alloc_traitsISaIP7ElementEE7destroyERS3_PS2_>:
 8049989:	55                   	push   %ebp
 804998a:	89 e5                	mov    %esp,%ebp
 804998c:	83 ec 18             	sub    $0x18,%esp
 804998f:	8b 45 0c             	mov    0xc(%ebp),%eax
 8049992:	89 44 24 04          	mov    %eax,0x4(%esp)
 8049996:	8b 45 08             	mov    0x8(%ebp),%eax
 8049999:	89 04 24             	mov    %eax,(%esp)
 804999c:	e8 77 01 00 00       	call   8049b18 <_ZN9__gnu_cxx13new_allocatorIP7ElementE7destroyEPS2_>
 80499a1:	c9                   	leave  
 80499a2:	c3                   	ret    
 80499a3:	90                   	nop

080499a4 <_ZNSt12_Vector_baseIP7ElementSaIS1_EE13_M_deallocateEPS1_j>:
 80499a4:	55                   	push   %ebp
 80499a5:	89 e5                	mov    %esp,%ebp
 80499a7:	83 ec 18             	sub    $0x18,%esp
 80499aa:	83 7d 0c 00          	cmpl   $0x0,0xc(%ebp)
 80499ae:	74 19                	je     80499c9 <_ZNSt12_Vector_baseIP7ElementSaIS1_EE13_M_deallocateEPS1_j+0x25>
 80499b0:	8b 45 08             	mov    0x8(%ebp),%eax
 80499b3:	8b 55 10             	mov    0x10(%ebp),%edx
 80499b6:	89 54 24 08          	mov    %edx,0x8(%esp)
 80499ba:	8b 55 0c             	mov    0xc(%ebp),%edx
 80499bd:	89 54 24 04          	mov    %edx,0x4(%esp)
 80499c1:	89 04 24             	mov    %eax,(%esp)
 80499c4:	e8 55 01 00 00       	call   8049b1e <_ZN9__gnu_cxx13new_allocatorIP7ElementE10deallocateEPS2_j>
 80499c9:	c9                   	leave  
 80499ca:	c3                   	ret    
 80499cb:	90                   	nop

080499cc <_ZN9__gnu_cxx17__normal_iteratorIPP7ElementSt6vectorIS2_SaIS2_EEEC1ERKS3_>:
 80499cc:	55                   	push   %ebp
 80499cd:	89 e5                	mov    %esp,%ebp
 80499cf:	8b 45 0c             	mov    0xc(%ebp),%eax
 80499d2:	8b 10                	mov    (%eax),%edx
 80499d4:	8b 45 08             	mov    0x8(%ebp),%eax
 80499d7:	89 10                	mov    %edx,(%eax)
 80499d9:	5d                   	pop    %ebp
 80499da:	c3                   	ret    
 80499db:	90                   	nop

080499dc <_ZNSt12_Vector_baseIP7ElementSaIS1_EE12_Vector_implC1Ev>:
 80499dc:	55                   	push   %ebp
 80499dd:	89 e5                	mov    %esp,%ebp
 80499df:	83 ec 18             	sub    $0x18,%esp
 80499e2:	8b 45 08             	mov    0x8(%ebp),%eax
 80499e5:	89 04 24             	mov    %eax,(%esp)
 80499e8:	e8 45 01 00 00       	call   8049b32 <_ZNSaIP7ElementEC1Ev>
 80499ed:	8b 45 08             	mov    0x8(%ebp),%eax
 80499f0:	c7 00 00 00 00 00    	movl   $0x0,(%eax)
 80499f6:	8b 45 08             	mov    0x8(%ebp),%eax
 80499f9:	c7 40 04 00 00 00 00 	movl   $0x0,0x4(%eax)
 8049a00:	8b 45 08             	mov    0x8(%ebp),%eax
 8049a03:	c7 40 08 00 00 00 00 	movl   $0x0,0x8(%eax)
 8049a0a:	c9                   	leave  
 8049a0b:	c3                   	ret    

08049a0c <_ZNSaIP7ElementED1Ev>:
 8049a0c:	55                   	push   %ebp
 8049a0d:	89 e5                	mov    %esp,%ebp
 8049a0f:	83 ec 18             	sub    $0x18,%esp
 8049a12:	8b 45 08             	mov    0x8(%ebp),%eax
 8049a15:	89 04 24             	mov    %eax,(%esp)
 8049a18:	e8 29 01 00 00       	call   8049b46 <_ZN9__gnu_cxx13new_allocatorIP7ElementED1Ev>
 8049a1d:	c9                   	leave  
 8049a1e:	c3                   	ret    

08049a1f <_ZSt8_DestroyIPP7ElementEvT_S3_>:
 8049a1f:	55                   	push   %ebp
 8049a20:	89 e5                	mov    %esp,%ebp
 8049a22:	83 ec 18             	sub    $0x18,%esp
 8049a25:	8b 45 0c             	mov    0xc(%ebp),%eax
 8049a28:	89 44 24 04          	mov    %eax,0x4(%esp)
 8049a2c:	8b 45 08             	mov    0x8(%ebp),%eax
 8049a2f:	89 04 24             	mov    %eax,(%esp)
 8049a32:	e8 14 01 00 00       	call   8049b4b <_ZNSt12_Destroy_auxILb1EE9__destroyIPP7ElementEEvT_S5_>
 8049a37:	c9                   	leave  
 8049a38:	c3                   	ret    

08049a39 <_ZSt12__miter_baseIPP7ElementENSt11_Miter_baseIT_E13iterator_typeES4_>:
 8049a39:	55                   	push   %ebp
 8049a3a:	89 e5                	mov    %esp,%ebp
 8049a3c:	83 ec 18             	sub    $0x18,%esp
 8049a3f:	8b 45 08             	mov    0x8(%ebp),%eax
 8049a42:	89 04 24             	mov    %eax,(%esp)
 8049a45:	e8 06 01 00 00       	call   8049b50 <_ZNSt10_Iter_baseIPP7ElementLb0EE7_S_baseES2_>
 8049a4a:	c9                   	leave  
 8049a4b:	c3                   	ret    

08049a4c <_ZSt23__copy_move_backward_a2ILb0EPP7ElementS2_ET1_T0_S4_S3_>:
 8049a4c:	55                   	push   %ebp
 8049a4d:	89 e5                	mov    %esp,%ebp
 8049a4f:	56                   	push   %esi
 8049a50:	53                   	push   %ebx
 8049a51:	83 ec 10             	sub    $0x10,%esp
 8049a54:	8b 45 10             	mov    0x10(%ebp),%eax
 8049a57:	89 04 24             	mov    %eax,(%esp)
 8049a5a:	e8 f9 00 00 00       	call   8049b58 <_ZSt12__niter_baseIPP7ElementENSt11_Niter_baseIT_E13iterator_typeES4_>
 8049a5f:	89 c6                	mov    %eax,%esi
 8049a61:	8b 45 0c             	mov    0xc(%ebp),%eax
 8049a64:	89 04 24             	mov    %eax,(%esp)
 8049a67:	e8 ec 00 00 00       	call   8049b58 <_ZSt12__niter_baseIPP7ElementENSt11_Niter_baseIT_E13iterator_typeES4_>
 8049a6c:	89 c3                	mov    %eax,%ebx
 8049a6e:	8b 45 08             	mov    0x8(%ebp),%eax
 8049a71:	89 04 24             	mov    %eax,(%esp)
 8049a74:	e8 df 00 00 00       	call   8049b58 <_ZSt12__niter_baseIPP7ElementENSt11_Niter_baseIT_E13iterator_typeES4_>
 8049a79:	89 74 24 08          	mov    %esi,0x8(%esp)
 8049a7d:	89 5c 24 04          	mov    %ebx,0x4(%esp)
 8049a81:	89 04 24             	mov    %eax,(%esp)
 8049a84:	e8 e2 00 00 00       	call   8049b6b <_ZSt22__copy_move_backward_aILb0EPP7ElementS2_ET1_T0_S4_S3_>
 8049a89:	83 c4 10             	add    $0x10,%esp
 8049a8c:	5b                   	pop    %ebx
 8049a8d:	5e                   	pop    %esi
 8049a8e:	5d                   	pop    %ebp
 8049a8f:	c3                   	ret    

08049a90 <_ZNKSt6vectorIP7ElementSaIS1_EE8max_sizeEv>:
 8049a90:	55                   	push   %ebp
 8049a91:	89 e5                	mov    %esp,%ebp
 8049a93:	83 ec 18             	sub    $0x18,%esp
 8049a96:	8b 45 08             	mov    0x8(%ebp),%eax
 8049a99:	89 04 24             	mov    %eax,(%esp)
 8049a9c:	e8 03 01 00 00       	call   8049ba4 <_ZNKSt12_Vector_baseIP7ElementSaIS1_EE19_M_get_Tp_allocatorEv>
 8049aa1:	89 04 24             	mov    %eax,(%esp)
 8049aa4:	e8 e7 00 00 00       	call   8049b90 <_ZN9__gnu_cxx14__alloc_traitsISaIP7ElementEE8max_sizeERKS3_>
 8049aa9:	c9                   	leave  
 8049aaa:	c3                   	ret    

08049aab <_ZSt3maxIjERKT_S2_S2_>:
 8049aab:	55                   	push   %ebp
 8049aac:	89 e5                	mov    %esp,%ebp
 8049aae:	8b 45 08             	mov    0x8(%ebp),%eax
 8049ab1:	8b 10                	mov    (%eax),%edx
 8049ab3:	8b 45 0c             	mov    0xc(%ebp),%eax
 8049ab6:	8b 00                	mov    (%eax),%eax
 8049ab8:	39 c2                	cmp    %eax,%edx
 8049aba:	73 05                	jae    8049ac1 <_ZSt3maxIjERKT_S2_S2_+0x16>
 8049abc:	8b 45 0c             	mov    0xc(%ebp),%eax
 8049abf:	eb 03                	jmp    8049ac4 <_ZSt3maxIjERKT_S2_S2_+0x19>
 8049ac1:	8b 45 08             	mov    0x8(%ebp),%eax
 8049ac4:	5d                   	pop    %ebp
 8049ac5:	c3                   	ret    

08049ac6 <_ZN9__gnu_cxx13new_allocatorIP7ElementE8allocateEjPKv>:
 8049ac6:	55                   	push   %ebp
 8049ac7:	89 e5                	mov    %esp,%ebp
 8049ac9:	83 ec 18             	sub    $0x18,%esp
 8049acc:	8b 45 08             	mov    0x8(%ebp),%eax
 8049acf:	89 04 24             	mov    %eax,(%esp)
 8049ad2:	e8 d5 00 00 00       	call   8049bac <_ZNK9__gnu_cxx13new_allocatorIP7ElementE8max_sizeEv>
 8049ad7:	3b 45 0c             	cmp    0xc(%ebp),%eax
 8049ada:	0f 92 c0             	setb   %al
 8049add:	84 c0                	test   %al,%al
 8049adf:	74 05                	je     8049ae6 <_ZN9__gnu_cxx13new_allocatorIP7ElementE8allocateEjPKv+0x20>
 8049ae1:	e8 5a f1 ff ff       	call   8048c40 <_ZSt17__throw_bad_allocv@plt>
 8049ae6:	8b 45 0c             	mov    0xc(%ebp),%eax
 8049ae9:	c1 e0 02             	shl    $0x2,%eax
 8049aec:	89 04 24             	mov    %eax,(%esp)
 8049aef:	e8 dc f0 ff ff       	call   8048bd0 <_Znwj@plt>
 8049af4:	c9                   	leave  
 8049af5:	c3                   	ret    

08049af6 <_ZSt22__uninitialized_copy_aIPP7ElementS2_S1_ET0_T_S4_S3_RSaIT1_E>:
 8049af6:	55                   	push   %ebp
 8049af7:	89 e5                	mov    %esp,%ebp
 8049af9:	83 ec 18             	sub    $0x18,%esp
 8049afc:	8b 45 10             	mov    0x10(%ebp),%eax
 8049aff:	89 44 24 08          	mov    %eax,0x8(%esp)
 8049b03:	8b 45 0c             	mov    0xc(%ebp),%eax
 8049b06:	89 44 24 04          	mov    %eax,0x4(%esp)
 8049b0a:	8b 45 08             	mov    0x8(%ebp),%eax
 8049b0d:	89 04 24             	mov    %eax,(%esp)
 8049b10:	e8 a1 00 00 00       	call   8049bb6 <_ZSt18uninitialized_copyIPP7ElementS2_ET0_T_S4_S3_>
 8049b15:	c9                   	leave  
 8049b16:	c3                   	ret    
 8049b17:	90                   	nop

08049b18 <_ZN9__gnu_cxx13new_allocatorIP7ElementE7destroyEPS2_>:
 8049b18:	55                   	push   %ebp
 8049b19:	89 e5                	mov    %esp,%ebp
 8049b1b:	5d                   	pop    %ebp
 8049b1c:	c3                   	ret    
 8049b1d:	90                   	nop

08049b1e <_ZN9__gnu_cxx13new_allocatorIP7ElementE10deallocateEPS2_j>:
 8049b1e:	55                   	push   %ebp
 8049b1f:	89 e5                	mov    %esp,%ebp
 8049b21:	83 ec 18             	sub    $0x18,%esp
 8049b24:	8b 45 0c             	mov    0xc(%ebp),%eax
 8049b27:	89 04 24             	mov    %eax,(%esp)
 8049b2a:	e8 e1 ef ff ff       	call   8048b10 <_ZdlPv@plt>
 8049b2f:	c9                   	leave  
 8049b30:	c3                   	ret    
 8049b31:	90                   	nop

08049b32 <_ZNSaIP7ElementEC1Ev>:
 8049b32:	55                   	push   %ebp
 8049b33:	89 e5                	mov    %esp,%ebp
 8049b35:	83 ec 18             	sub    $0x18,%esp
 8049b38:	8b 45 08             	mov    0x8(%ebp),%eax
 8049b3b:	89 04 24             	mov    %eax,(%esp)
 8049b3e:	e8 95 00 00 00       	call   8049bd8 <_ZN9__gnu_cxx13new_allocatorIP7ElementEC1Ev>
 8049b43:	c9                   	leave  
 8049b44:	c3                   	ret    
 8049b45:	90                   	nop

08049b46 <_ZN9__gnu_cxx13new_allocatorIP7ElementED1Ev>:
 8049b46:	55                   	push   %ebp
 8049b47:	89 e5                	mov    %esp,%ebp
 8049b49:	5d                   	pop    %ebp
 8049b4a:	c3                   	ret    

08049b4b <_ZNSt12_Destroy_auxILb1EE9__destroyIPP7ElementEEvT_S5_>:
 8049b4b:	55                   	push   %ebp
 8049b4c:	89 e5                	mov    %esp,%ebp
 8049b4e:	5d                   	pop    %ebp
 8049b4f:	c3                   	ret    

08049b50 <_ZNSt10_Iter_baseIPP7ElementLb0EE7_S_baseES2_>:
 8049b50:	55                   	push   %ebp
 8049b51:	89 e5                	mov    %esp,%ebp
 8049b53:	8b 45 08             	mov    0x8(%ebp),%eax
 8049b56:	5d                   	pop    %ebp
 8049b57:	c3                   	ret    

08049b58 <_ZSt12__niter_baseIPP7ElementENSt11_Niter_baseIT_E13iterator_typeES4_>:
 8049b58:	55                   	push   %ebp
 8049b59:	89 e5                	mov    %esp,%ebp
 8049b5b:	83 ec 18             	sub    $0x18,%esp
 8049b5e:	8b 45 08             	mov    0x8(%ebp),%eax
 8049b61:	89 04 24             	mov    %eax,(%esp)
 8049b64:	e8 e7 ff ff ff       	call   8049b50 <_ZNSt10_Iter_baseIPP7ElementLb0EE7_S_baseES2_>
 8049b69:	c9                   	leave  
 8049b6a:	c3                   	ret    

08049b6b <_ZSt22__copy_move_backward_aILb0EPP7ElementS2_ET1_T0_S4_S3_>:
 8049b6b:	55                   	push   %ebp
 8049b6c:	89 e5                	mov    %esp,%ebp
 8049b6e:	83 ec 28             	sub    $0x28,%esp
 8049b71:	c6 45 f7 01          	movb   $0x1,-0x9(%ebp)
 8049b75:	8b 45 10             	mov    0x10(%ebp),%eax
 8049b78:	89 44 24 08          	mov    %eax,0x8(%esp)
 8049b7c:	8b 45 0c             	mov    0xc(%ebp),%eax
 8049b7f:	89 44 24 04          	mov    %eax,0x4(%esp)
 8049b83:	8b 45 08             	mov    0x8(%ebp),%eax
 8049b86:	89 04 24             	mov    %eax,(%esp)
 8049b89:	e8 4f 00 00 00       	call   8049bdd <_ZNSt20__copy_move_backwardILb0ELb1ESt26random_access_iterator_tagE13__copy_move_bIP7ElementEEPT_PKS5_S8_S6_>
 8049b8e:	c9                   	leave  
 8049b8f:	c3                   	ret    

08049b90 <_ZN9__gnu_cxx14__alloc_traitsISaIP7ElementEE8max_sizeERKS3_>:
 8049b90:	55                   	push   %ebp
 8049b91:	89 e5                	mov    %esp,%ebp
 8049b93:	83 ec 18             	sub    $0x18,%esp
 8049b96:	8b 45 08             	mov    0x8(%ebp),%eax
 8049b99:	89 04 24             	mov    %eax,(%esp)
 8049b9c:	e8 0b 00 00 00       	call   8049bac <_ZNK9__gnu_cxx13new_allocatorIP7ElementE8max_sizeEv>
 8049ba1:	c9                   	leave  
 8049ba2:	c3                   	ret    
 8049ba3:	90                   	nop

08049ba4 <_ZNKSt12_Vector_baseIP7ElementSaIS1_EE19_M_get_Tp_allocatorEv>:
 8049ba4:	55                   	push   %ebp
 8049ba5:	89 e5                	mov    %esp,%ebp
 8049ba7:	8b 45 08             	mov    0x8(%ebp),%eax
 8049baa:	5d                   	pop    %ebp
 8049bab:	c3                   	ret    

08049bac <_ZNK9__gnu_cxx13new_allocatorIP7ElementE8max_sizeEv>:
 8049bac:	55                   	push   %ebp
 8049bad:	89 e5                	mov    %esp,%ebp
 8049baf:	b8 ff ff ff 3f       	mov    $0x3fffffff,%eax
 8049bb4:	5d                   	pop    %ebp
 8049bb5:	c3                   	ret    

08049bb6 <_ZSt18uninitialized_copyIPP7ElementS2_ET0_T_S4_S3_>:
 8049bb6:	55                   	push   %ebp
 8049bb7:	89 e5                	mov    %esp,%ebp
 8049bb9:	83 ec 18             	sub    $0x18,%esp
 8049bbc:	8b 45 10             	mov    0x10(%ebp),%eax
 8049bbf:	89 44 24 08          	mov    %eax,0x8(%esp)
 8049bc3:	8b 45 0c             	mov    0xc(%ebp),%eax
 8049bc6:	89 44 24 04          	mov    %eax,0x4(%esp)
 8049bca:	8b 45 08             	mov    0x8(%ebp),%eax
 8049bcd:	89 04 24             	mov    %eax,(%esp)
 8049bd0:	e8 5f 00 00 00       	call   8049c34 <_ZNSt20__uninitialized_copyILb1EE13__uninit_copyIPP7ElementS4_EET0_T_S6_S5_>
 8049bd5:	c9                   	leave  
 8049bd6:	c3                   	ret    
 8049bd7:	90                   	nop

08049bd8 <_ZN9__gnu_cxx13new_allocatorIP7ElementEC1Ev>:
 8049bd8:	55                   	push   %ebp
 8049bd9:	89 e5                	mov    %esp,%ebp
 8049bdb:	5d                   	pop    %ebp
 8049bdc:	c3                   	ret    

08049bdd <_ZNSt20__copy_move_backwardILb0ELb1ESt26random_access_iterator_tagE13__copy_move_bIP7ElementEEPT_PKS5_S8_S6_>:
 8049bdd:	55                   	push   %ebp
 8049bde:	89 e5                	mov    %esp,%ebp
 8049be0:	83 ec 28             	sub    $0x28,%esp
 8049be3:	8b 55 0c             	mov    0xc(%ebp),%edx
 8049be6:	8b 45 08             	mov    0x8(%ebp),%eax
 8049be9:	89 d1                	mov    %edx,%ecx
 8049beb:	29 c1                	sub    %eax,%ecx
 8049bed:	89 c8                	mov    %ecx,%eax
 8049bef:	c1 f8 02             	sar    $0x2,%eax
 8049bf2:	89 45 f4             	mov    %eax,-0xc(%ebp)
 8049bf5:	83 7d f4 00          	cmpl   $0x0,-0xc(%ebp)
 8049bf9:	74 28                	je     8049c23 <_ZNSt20__copy_move_backwardILb0ELb1ESt26random_access_iterator_tagE13__copy_move_bIP7ElementEEPT_PKS5_S8_S6_+0x46>
 8049bfb:	8b 45 f4             	mov    -0xc(%ebp),%eax
 8049bfe:	c1 e0 02             	shl    $0x2,%eax
 8049c01:	8b 55 f4             	mov    -0xc(%ebp),%edx
 8049c04:	c1 e2 02             	shl    $0x2,%edx
 8049c07:	89 d1                	mov    %edx,%ecx
 8049c09:	f7 d9                	neg    %ecx
 8049c0b:	8b 55 10             	mov    0x10(%ebp),%edx
 8049c0e:	01 ca                	add    %ecx,%edx
 8049c10:	89 44 24 08          	mov    %eax,0x8(%esp)
 8049c14:	8b 45 08             	mov    0x8(%ebp),%eax
 8049c17:	89 44 24 04          	mov    %eax,0x4(%esp)
 8049c1b:	89 14 24             	mov    %edx,(%esp)
 8049c1e:	e8 dd ef ff ff       	call   8048c00 <memmove@plt>
 8049c23:	8b 45 f4             	mov    -0xc(%ebp),%eax
 8049c26:	c1 e0 02             	shl    $0x2,%eax
 8049c29:	89 c2                	mov    %eax,%edx
 8049c2b:	f7 da                	neg    %edx
 8049c2d:	8b 45 10             	mov    0x10(%ebp),%eax
 8049c30:	01 d0                	add    %edx,%eax
 8049c32:	c9                   	leave  
 8049c33:	c3                   	ret    

08049c34 <_ZNSt20__uninitialized_copyILb1EE13__uninit_copyIPP7ElementS4_EET0_T_S6_S5_>:
 8049c34:	55                   	push   %ebp
 8049c35:	89 e5                	mov    %esp,%ebp
 8049c37:	83 ec 18             	sub    $0x18,%esp
 8049c3a:	8b 45 10             	mov    0x10(%ebp),%eax
 8049c3d:	89 44 24 08          	mov    %eax,0x8(%esp)
 8049c41:	8b 45 0c             	mov    0xc(%ebp),%eax
 8049c44:	89 44 24 04          	mov    %eax,0x4(%esp)
 8049c48:	8b 45 08             	mov    0x8(%ebp),%eax
 8049c4b:	89 04 24             	mov    %eax,(%esp)
 8049c4e:	e8 02 00 00 00       	call   8049c55 <_ZSt4copyIPP7ElementS2_ET0_T_S4_S3_>
 8049c53:	c9                   	leave  
 8049c54:	c3                   	ret    

08049c55 <_ZSt4copyIPP7ElementS2_ET0_T_S4_S3_>:
 8049c55:	55                   	push   %ebp
 8049c56:	89 e5                	mov    %esp,%ebp
 8049c58:	53                   	push   %ebx
 8049c59:	83 ec 14             	sub    $0x14,%esp
 8049c5c:	8b 45 0c             	mov    0xc(%ebp),%eax
 8049c5f:	89 04 24             	mov    %eax,(%esp)
 8049c62:	e8 d2 fd ff ff       	call   8049a39 <_ZSt12__miter_baseIPP7ElementENSt11_Miter_baseIT_E13iterator_typeES4_>
 8049c67:	89 c3                	mov    %eax,%ebx
 8049c69:	8b 45 08             	mov    0x8(%ebp),%eax
 8049c6c:	89 04 24             	mov    %eax,(%esp)
 8049c6f:	e8 c5 fd ff ff       	call   8049a39 <_ZSt12__miter_baseIPP7ElementENSt11_Miter_baseIT_E13iterator_typeES4_>
 8049c74:	8b 55 10             	mov    0x10(%ebp),%edx
 8049c77:	89 54 24 08          	mov    %edx,0x8(%esp)
 8049c7b:	89 5c 24 04          	mov    %ebx,0x4(%esp)
 8049c7f:	89 04 24             	mov    %eax,(%esp)
 8049c82:	e8 06 00 00 00       	call   8049c8d <_ZSt14__copy_move_a2ILb0EPP7ElementS2_ET1_T0_S4_S3_>
 8049c87:	83 c4 14             	add    $0x14,%esp
 8049c8a:	5b                   	pop    %ebx
 8049c8b:	5d                   	pop    %ebp
 8049c8c:	c3                   	ret    

08049c8d <_ZSt14__copy_move_a2ILb0EPP7ElementS2_ET1_T0_S4_S3_>:
 8049c8d:	55                   	push   %ebp
 8049c8e:	89 e5                	mov    %esp,%ebp
 8049c90:	56                   	push   %esi
 8049c91:	53                   	push   %ebx
 8049c92:	83 ec 10             	sub    $0x10,%esp
 8049c95:	8b 45 10             	mov    0x10(%ebp),%eax
 8049c98:	89 04 24             	mov    %eax,(%esp)
 8049c9b:	e8 b8 fe ff ff       	call   8049b58 <_ZSt12__niter_baseIPP7ElementENSt11_Niter_baseIT_E13iterator_typeES4_>
 8049ca0:	89 c6                	mov    %eax,%esi
 8049ca2:	8b 45 0c             	mov    0xc(%ebp),%eax
 8049ca5:	89 04 24             	mov    %eax,(%esp)
 8049ca8:	e8 ab fe ff ff       	call   8049b58 <_ZSt12__niter_baseIPP7ElementENSt11_Niter_baseIT_E13iterator_typeES4_>
 8049cad:	89 c3                	mov    %eax,%ebx
 8049caf:	8b 45 08             	mov    0x8(%ebp),%eax
 8049cb2:	89 04 24             	mov    %eax,(%esp)
 8049cb5:	e8 9e fe ff ff       	call   8049b58 <_ZSt12__niter_baseIPP7ElementENSt11_Niter_baseIT_E13iterator_typeES4_>
 8049cba:	89 74 24 08          	mov    %esi,0x8(%esp)
 8049cbe:	89 5c 24 04          	mov    %ebx,0x4(%esp)
 8049cc2:	89 04 24             	mov    %eax,(%esp)
 8049cc5:	e8 07 00 00 00       	call   8049cd1 <_ZSt13__copy_move_aILb0EPP7ElementS2_ET1_T0_S4_S3_>
 8049cca:	83 c4 10             	add    $0x10,%esp
 8049ccd:	5b                   	pop    %ebx
 8049cce:	5e                   	pop    %esi
 8049ccf:	5d                   	pop    %ebp
 8049cd0:	c3                   	ret    

08049cd1 <_ZSt13__copy_move_aILb0EPP7ElementS2_ET1_T0_S4_S3_>:
 8049cd1:	55                   	push   %ebp
 8049cd2:	89 e5                	mov    %esp,%ebp
 8049cd4:	83 ec 28             	sub    $0x28,%esp
 8049cd7:	c6 45 f7 01          	movb   $0x1,-0x9(%ebp)
 8049cdb:	8b 45 10             	mov    0x10(%ebp),%eax
 8049cde:	89 44 24 08          	mov    %eax,0x8(%esp)
 8049ce2:	8b 45 0c             	mov    0xc(%ebp),%eax
 8049ce5:	89 44 24 04          	mov    %eax,0x4(%esp)
 8049ce9:	8b 45 08             	mov    0x8(%ebp),%eax
 8049cec:	89 04 24             	mov    %eax,(%esp)
 8049cef:	e8 02 00 00 00       	call   8049cf6 <_ZNSt11__copy_moveILb0ELb1ESt26random_access_iterator_tagE8__copy_mIP7ElementEEPT_PKS5_S8_S6_>
 8049cf4:	c9                   	leave  
 8049cf5:	c3                   	ret    

08049cf6 <_ZNSt11__copy_moveILb0ELb1ESt26random_access_iterator_tagE8__copy_mIP7ElementEEPT_PKS5_S8_S6_>:
 8049cf6:	55                   	push   %ebp
 8049cf7:	89 e5                	mov    %esp,%ebp
 8049cf9:	83 ec 28             	sub    $0x28,%esp
 8049cfc:	8b 55 0c             	mov    0xc(%ebp),%edx
 8049cff:	8b 45 08             	mov    0x8(%ebp),%eax
 8049d02:	89 d1                	mov    %edx,%ecx
 8049d04:	29 c1                	sub    %eax,%ecx
 8049d06:	89 c8                	mov    %ecx,%eax
 8049d08:	c1 f8 02             	sar    $0x2,%eax
 8049d0b:	89 45 f4             	mov    %eax,-0xc(%ebp)
 8049d0e:	83 7d f4 00          	cmpl   $0x0,-0xc(%ebp)
 8049d12:	74 1c                	je     8049d30 <_ZNSt11__copy_moveILb0ELb1ESt26random_access_iterator_tagE8__copy_mIP7ElementEEPT_PKS5_S8_S6_+0x3a>
 8049d14:	8b 45 f4             	mov    -0xc(%ebp),%eax
 8049d17:	c1 e0 02             	shl    $0x2,%eax
 8049d1a:	89 44 24 08          	mov    %eax,0x8(%esp)
 8049d1e:	8b 45 08             	mov    0x8(%ebp),%eax
 8049d21:	89 44 24 04          	mov    %eax,0x4(%esp)
 8049d25:	8b 45 10             	mov    0x10(%ebp),%eax
 8049d28:	89 04 24             	mov    %eax,(%esp)
 8049d2b:	e8 d0 ee ff ff       	call   8048c00 <memmove@plt>
 8049d30:	8b 45 f4             	mov    -0xc(%ebp),%eax
 8049d33:	8d 14 85 00 00 00 00 	lea    0x0(,%eax,4),%edx
 8049d3a:	8b 45 10             	mov    0x10(%ebp),%eax
 8049d3d:	01 d0                	add    %edx,%eax
 8049d3f:	c9                   	leave  
 8049d40:	c3                   	ret    
 8049d41:	90                   	nop
 8049d42:	90                   	nop
 8049d43:	90                   	nop

08049d44 <_ZNK4File8get_typeEv>:
 8049d44:	55                   	push   %ebp
 8049d45:	89 e5                	mov    %esp,%ebp
 8049d47:	83 ec 18             	sub    $0x18,%esp
 8049d4a:	c7 04 24 7c a5 04 08 	movl   $0x804a57c,(%esp)
 8049d51:	e8 2a ef ff ff       	call   8048c80 <strdup@plt>
 8049d56:	c9                   	leave  
 8049d57:	c3                   	ret    

08049d58 <_ZN4File4loadEPc>:
 8049d58:	55                   	push   %ebp
 8049d59:	89 e5                	mov    %esp,%ebp
 8049d5b:	83 ec 18             	sub    $0x18,%esp
 8049d5e:	8b 45 08             	mov    0x8(%ebp),%eax
 8049d61:	8b 55 0c             	mov    0xc(%ebp),%edx
 8049d64:	89 54 24 04          	mov    %edx,0x4(%esp)
 8049d68:	89 04 24             	mov    %eax,(%esp)
 8049d6b:	e8 bc f0 ff ff       	call   8048e2c <_ZN7Element4loadEPc>
 8049d70:	8b 45 08             	mov    0x8(%ebp),%eax
 8049d73:	89 04 24             	mov    %eax,(%esp)
 8049d76:	e8 53 f0 ff ff       	call   8048dce <_ZNK7Element4failEv>
 8049d7b:	83 f0 01             	xor    $0x1,%eax
 8049d7e:	84 c0                	test   %al,%al
 8049d80:	74 28                	je     8049daa <_ZN4File4loadEPc+0x52>
 8049d82:	8b 45 08             	mov    0x8(%ebp),%eax
 8049d85:	8b 80 40 02 00 00    	mov    0x240(%eax),%eax
 8049d8b:	89 c2                	mov    %eax,%edx
 8049d8d:	8b 45 08             	mov    0x8(%ebp),%eax
 8049d90:	89 90 08 02 00 00    	mov    %edx,0x208(%eax)
 8049d96:	8b 45 08             	mov    0x8(%ebp),%eax
 8049d99:	8b 80 54 02 00 00    	mov    0x254(%eax),%eax
 8049d9f:	89 c2                	mov    %eax,%edx
 8049da1:	8b 45 08             	mov    0x8(%ebp),%eax
 8049da4:	89 90 0c 02 00 00    	mov    %edx,0x20c(%eax)
 8049daa:	c9                   	leave  
 8049dab:	c3                   	ret    

08049dac <_ZN4FileC1Ev>:
 8049dac:	55                   	push   %ebp
 8049dad:	89 e5                	mov    %esp,%ebp
 8049daf:	83 ec 18             	sub    $0x18,%esp
 8049db2:	8b 45 08             	mov    0x8(%ebp),%eax
 8049db5:	89 04 24             	mov    %eax,(%esp)
 8049db8:	e8 bb f0 ff ff       	call   8048e78 <_ZN7ElementC1Ev>
 8049dbd:	8b 45 08             	mov    0x8(%ebp),%eax
 8049dc0:	c7 00 90 a5 04 08    	movl   $0x804a590,(%eax)
 8049dc6:	c9                   	leave  
 8049dc7:	c3                   	ret    

08049dc8 <_ZN4FileD1Ev>:
 8049dc8:	55                   	push   %ebp
 8049dc9:	89 e5                	mov    %esp,%ebp
 8049dcb:	83 ec 18             	sub    $0x18,%esp
 8049dce:	8b 45 08             	mov    0x8(%ebp),%eax
 8049dd1:	c7 00 90 a5 04 08    	movl   $0x804a590,(%eax)
 8049dd7:	8b 45 08             	mov    0x8(%ebp),%eax
 8049dda:	89 04 24             	mov    %eax,(%esp)
 8049ddd:	e8 bc f0 ff ff       	call   8048e9e <_ZN7ElementD1Ev>
 8049de2:	b8 00 00 00 00       	mov    $0x0,%eax
 8049de7:	83 e0 01             	and    $0x1,%eax
 8049dea:	85 c0                	test   %eax,%eax
 8049dec:	74 0b                	je     8049df9 <_ZN4FileD1Ev+0x31>
 8049dee:	8b 45 08             	mov    0x8(%ebp),%eax
 8049df1:	89 04 24             	mov    %eax,(%esp)
 8049df4:	e8 17 ed ff ff       	call   8048b10 <_ZdlPv@plt>
 8049df9:	c9                   	leave  
 8049dfa:	c3                   	ret    
 8049dfb:	90                   	nop

08049dfc <_ZN4FileD0Ev>:
 8049dfc:	55                   	push   %ebp
 8049dfd:	89 e5                	mov    %esp,%ebp
 8049dff:	83 ec 18             	sub    $0x18,%esp
 8049e02:	8b 45 08             	mov    0x8(%ebp),%eax
 8049e05:	89 04 24             	mov    %eax,(%esp)
 8049e08:	e8 bb ff ff ff       	call   8049dc8 <_ZN4FileD1Ev>
 8049e0d:	8b 45 08             	mov    0x8(%ebp),%eax
 8049e10:	89 04 24             	mov    %eax,(%esp)
 8049e13:	e8 f8 ec ff ff       	call   8048b10 <_ZdlPv@plt>
 8049e18:	c9                   	leave  
 8049e19:	c3                   	ret    
 8049e1a:	90                   	nop
 8049e1b:	90                   	nop

08049e1c <main>:
 8049e1c:	55                   	push   %ebp
 8049e1d:	89 e5                	mov    %esp,%ebp
 8049e1f:	56                   	push   %esi
 8049e20:	53                   	push   %ebx
 8049e21:	83 e4 f0             	and    $0xfffffff0,%esp
 8049e24:	83 ec 20             	sub    $0x20,%esp
 8049e27:	83 7d 08 03          	cmpl   $0x3,0x8(%ebp)
 8049e2b:	74 4f                	je     8049e7c <main+0x60>
 8049e2d:	8b 45 0c             	mov    0xc(%ebp),%eax
 8049e30:	8b 18                	mov    (%eax),%ebx
 8049e32:	c7 44 24 04 b2 a5 04 	movl   $0x804a5b2,0x4(%esp)
 8049e39:	08 
 8049e3a:	c7 04 24 c0 c6 04 08 	movl   $0x804c6c0,(%esp)
 8049e41:	e8 1a ed ff ff       	call   8048b60 <_ZStlsISt11char_traitsIcEERSt13basic_ostreamIcT_ES5_PKc@plt>
 8049e46:	89 5c 24 04          	mov    %ebx,0x4(%esp)
 8049e4a:	89 04 24             	mov    %eax,(%esp)
 8049e4d:	e8 0e ed ff ff       	call   8048b60 <_ZStlsISt11char_traitsIcEERSt13basic_ostreamIcT_ES5_PKc@plt>
 8049e52:	c7 44 24 04 bb a5 04 	movl   $0x804a5bb,0x4(%esp)
 8049e59:	08 
 8049e5a:	89 04 24             	mov    %eax,(%esp)
 8049e5d:	e8 fe ec ff ff       	call   8048b60 <_ZStlsISt11char_traitsIcEERSt13basic_ostreamIcT_ES5_PKc@plt>
 8049e62:	c7 44 24 04 50 8c 04 	movl   $0x8048c50,0x4(%esp)
 8049e69:	08 
 8049e6a:	89 04 24             	mov    %eax,(%esp)
 8049e6d:	e8 ae ed ff ff       	call   8048c20 <_ZNSolsEPFRSoS_E@plt>
 8049e72:	b8 01 00 00 00       	mov    $0x1,%eax
 8049e77:	e9 f3 04 00 00       	jmp    804a36f <main+0x553>
 8049e7c:	8b 45 0c             	mov    0xc(%ebp),%eax
 8049e7f:	83 c0 04             	add    $0x4,%eax
 8049e82:	8b 00                	mov    (%eax),%eax
 8049e84:	89 04 24             	mov    %eax,(%esp)
 8049e87:	e8 f4 ec ff ff       	call   8048b80 <opendir@plt>
 8049e8c:	85 c0                	test   %eax,%eax
 8049e8e:	0f 94 c0             	sete   %al
 8049e91:	84 c0                	test   %al,%al
 8049e93:	74 1c                	je     8049eb1 <main+0x95>
 8049e95:	c7 04 24 6c 02 00 00 	movl   $0x26c,(%esp)
 8049e9c:	e8 2f ed ff ff       	call   8048bd0 <_Znwj@plt>
 8049ea1:	89 c3                	mov    %eax,%ebx
 8049ea3:	89 1c 24             	mov    %ebx,(%esp)
 8049ea6:	e8 01 ff ff ff       	call   8049dac <_ZN4FileC1Ev>
 8049eab:	89 5c 24 1c          	mov    %ebx,0x1c(%esp)
 8049eaf:	eb 1a                	jmp    8049ecb <main+0xaf>
 8049eb1:	c7 04 24 78 02 00 00 	movl   $0x278,(%esp)
 8049eb8:	e8 13 ed ff ff       	call   8048bd0 <_Znwj@plt>
 8049ebd:	89 c3                	mov    %eax,%ebx
 8049ebf:	89 1c 24             	mov    %ebx,(%esp)
 8049ec2:	e8 cf f2 ff ff       	call   8049196 <_ZN6FolderC1Ev>
 8049ec7:	89 5c 24 1c          	mov    %ebx,0x1c(%esp)
 8049ecb:	8b 45 0c             	mov    0xc(%ebp),%eax
 8049ece:	83 c0 08             	add    $0x8,%eax
 8049ed1:	8b 00                	mov    (%eax),%eax
 8049ed3:	89 04 24             	mov    %eax,(%esp)
 8049ed6:	e8 a5 ec ff ff       	call   8048b80 <opendir@plt>
 8049edb:	85 c0                	test   %eax,%eax
 8049edd:	0f 94 c0             	sete   %al
 8049ee0:	84 c0                	test   %al,%al
 8049ee2:	74 1c                	je     8049f00 <main+0xe4>
 8049ee4:	c7 04 24 6c 02 00 00 	movl   $0x26c,(%esp)
 8049eeb:	e8 e0 ec ff ff       	call   8048bd0 <_Znwj@plt>
 8049ef0:	89 c3                	mov    %eax,%ebx
 8049ef2:	89 1c 24             	mov    %ebx,(%esp)
 8049ef5:	e8 b2 fe ff ff       	call   8049dac <_ZN4FileC1Ev>
 8049efa:	89 5c 24 18          	mov    %ebx,0x18(%esp)
 8049efe:	eb 1a                	jmp    8049f1a <main+0xfe>
 8049f00:	c7 04 24 78 02 00 00 	movl   $0x278,(%esp)
 8049f07:	e8 c4 ec ff ff       	call   8048bd0 <_Znwj@plt>
 8049f0c:	89 c3                	mov    %eax,%ebx
 8049f0e:	89 1c 24             	mov    %ebx,(%esp)
 8049f11:	e8 80 f2 ff ff       	call   8049196 <_ZN6FolderC1Ev>
 8049f16:	89 5c 24 18          	mov    %ebx,0x18(%esp)
 8049f1a:	8b 44 24 18          	mov    0x18(%esp),%eax
 8049f1e:	8b 00                	mov    (%eax),%eax
 8049f20:	8b 00                	mov    (%eax),%eax
 8049f22:	8b 55 0c             	mov    0xc(%ebp),%edx
 8049f25:	83 c2 08             	add    $0x8,%edx
 8049f28:	8b 12                	mov    (%edx),%edx
 8049f2a:	89 54 24 04          	mov    %edx,0x4(%esp)
 8049f2e:	8b 54 24 18          	mov    0x18(%esp),%edx
 8049f32:	89 14 24             	mov    %edx,(%esp)
 8049f35:	ff d0                	call   *%eax
 8049f37:	8b 44 24 1c          	mov    0x1c(%esp),%eax
 8049f3b:	8b 00                	mov    (%eax),%eax
 8049f3d:	8b 00                	mov    (%eax),%eax
 8049f3f:	8b 55 0c             	mov    0xc(%ebp),%edx
 8049f42:	83 c2 04             	add    $0x4,%edx
 8049f45:	8b 12                	mov    (%edx),%edx
 8049f47:	89 54 24 04          	mov    %edx,0x4(%esp)
 8049f4b:	8b 54 24 1c          	mov    0x1c(%esp),%edx
 8049f4f:	89 14 24             	mov    %edx,(%esp)
 8049f52:	ff d0                	call   *%eax
 8049f54:	8b 44 24 1c          	mov    0x1c(%esp),%eax
 8049f58:	89 04 24             	mov    %eax,(%esp)
 8049f5b:	e8 6e ee ff ff       	call   8048dce <_ZNK7Element4failEv>
 8049f60:	84 c0                	test   %al,%al
 8049f62:	74 52                	je     8049fb6 <main+0x19a>
 8049f64:	8b 45 0c             	mov    0xc(%ebp),%eax
 8049f67:	83 c0 04             	add    $0x4,%eax
 8049f6a:	8b 18                	mov    (%eax),%ebx
 8049f6c:	c7 44 24 04 d2 a5 04 	movl   $0x804a5d2,0x4(%esp)
 8049f73:	08 
 8049f74:	c7 04 24 c0 c6 04 08 	movl   $0x804c6c0,(%esp)
 8049f7b:	e8 e0 eb ff ff       	call   8048b60 <_ZStlsISt11char_traitsIcEERSt13basic_ostreamIcT_ES5_PKc@plt>
 8049f80:	89 5c 24 04          	mov    %ebx,0x4(%esp)
 8049f84:	89 04 24             	mov    %eax,(%esp)
 8049f87:	e8 d4 eb ff ff       	call   8048b60 <_ZStlsISt11char_traitsIcEERSt13basic_ostreamIcT_ES5_PKc@plt>
 8049f8c:	c7 44 24 04 eb a5 04 	movl   $0x804a5eb,0x4(%esp)
 8049f93:	08 
 8049f94:	89 04 24             	mov    %eax,(%esp)
 8049f97:	e8 c4 eb ff ff       	call   8048b60 <_ZStlsISt11char_traitsIcEERSt13basic_ostreamIcT_ES5_PKc@plt>
 8049f9c:	c7 44 24 04 50 8c 04 	movl   $0x8048c50,0x4(%esp)
 8049fa3:	08 
 8049fa4:	89 04 24             	mov    %eax,(%esp)
 8049fa7:	e8 74 ec ff ff       	call   8048c20 <_ZNSolsEPFRSoS_E@plt>
 8049fac:	b8 01 00 00 00       	mov    $0x1,%eax
 8049fb1:	e9 b9 03 00 00       	jmp    804a36f <main+0x553>
 8049fb6:	8b 44 24 18          	mov    0x18(%esp),%eax
 8049fba:	89 04 24             	mov    %eax,(%esp)
 8049fbd:	e8 0c ee ff ff       	call   8048dce <_ZNK7Element4failEv>
 8049fc2:	84 c0                	test   %al,%al
 8049fc4:	74 52                	je     804a018 <main+0x1fc>
 8049fc6:	8b 45 0c             	mov    0xc(%ebp),%eax
 8049fc9:	83 c0 08             	add    $0x8,%eax
 8049fcc:	8b 18                	mov    (%eax),%ebx
 8049fce:	c7 44 24 04 ed a5 04 	movl   $0x804a5ed,0x4(%esp)
 8049fd5:	08 
 8049fd6:	c7 04 24 c0 c6 04 08 	movl   $0x804c6c0,(%esp)
 8049fdd:	e8 7e eb ff ff       	call   8048b60 <_ZStlsISt11char_traitsIcEERSt13basic_ostreamIcT_ES5_PKc@plt>
 8049fe2:	89 5c 24 04          	mov    %ebx,0x4(%esp)
 8049fe6:	89 04 24             	mov    %eax,(%esp)
 8049fe9:	e8 72 eb ff ff       	call   8048b60 <_ZStlsISt11char_traitsIcEERSt13basic_ostreamIcT_ES5_PKc@plt>
 8049fee:	c7 44 24 04 eb a5 04 	movl   $0x804a5eb,0x4(%esp)
 8049ff5:	08 
 8049ff6:	89 04 24             	mov    %eax,(%esp)
 8049ff9:	e8 62 eb ff ff       	call   8048b60 <_ZStlsISt11char_traitsIcEERSt13basic_ostreamIcT_ES5_PKc@plt>
 8049ffe:	c7 44 24 04 50 8c 04 	movl   $0x8048c50,0x4(%esp)
 804a005:	08 
 804a006:	89 04 24             	mov    %eax,(%esp)
 804a009:	e8 12 ec ff ff       	call   8048c20 <_ZNSolsEPFRSoS_E@plt>
 804a00e:	b8 01 00 00 00       	mov    $0x1,%eax
 804a013:	e9 57 03 00 00       	jmp    804a36f <main+0x553>
 804a018:	c7 44 24 04 06 a6 04 	movl   $0x804a606,0x4(%esp)
 804a01f:	08 
 804a020:	c7 04 24 c0 c6 04 08 	movl   $0x804c6c0,(%esp)
 804a027:	e8 34 eb ff ff       	call   8048b60 <_ZStlsISt11char_traitsIcEERSt13basic_ostreamIcT_ES5_PKc@plt>
 804a02c:	c7 44 24 04 50 8c 04 	movl   $0x8048c50,0x4(%esp)
 804a033:	08 
 804a034:	89 04 24             	mov    %eax,(%esp)
 804a037:	e8 e4 eb ff ff       	call   8048c20 <_ZNSolsEPFRSoS_E@plt>
 804a03c:	8b 44 24 1c          	mov    0x1c(%esp),%eax
 804a040:	89 04 24             	mov    %eax,(%esp)
 804a043:	e8 54 ed ff ff       	call   8048d9c <_ZNK7Element8get_nameEv>
 804a048:	89 c3                	mov    %eax,%ebx
 804a04a:	c7 44 24 04 13 a6 04 	movl   $0x804a613,0x4(%esp)
 804a051:	08 
 804a052:	c7 04 24 c0 c6 04 08 	movl   $0x804c6c0,(%esp)
 804a059:	e8 02 eb ff ff       	call   8048b60 <_ZStlsISt11char_traitsIcEERSt13basic_ostreamIcT_ES5_PKc@plt>
 804a05e:	89 5c 24 04          	mov    %ebx,0x4(%esp)
 804a062:	89 04 24             	mov    %eax,(%esp)
 804a065:	e8 f6 ea ff ff       	call   8048b60 <_ZStlsISt11char_traitsIcEERSt13basic_ostreamIcT_ES5_PKc@plt>
 804a06a:	c7 44 24 04 50 8c 04 	movl   $0x8048c50,0x4(%esp)
 804a071:	08 
 804a072:	89 04 24             	mov    %eax,(%esp)
 804a075:	e8 a6 eb ff ff       	call   8048c20 <_ZNSolsEPFRSoS_E@plt>
 804a07a:	8b 44 24 1c          	mov    0x1c(%esp),%eax
 804a07e:	8b 00                	mov    (%eax),%eax
 804a080:	83 c0 04             	add    $0x4,%eax
 804a083:	8b 00                	mov    (%eax),%eax
 804a085:	8b 54 24 1c          	mov    0x1c(%esp),%edx
 804a089:	89 14 24             	mov    %edx,(%esp)
 804a08c:	ff d0                	call   *%eax
 804a08e:	89 c3                	mov    %eax,%ebx
 804a090:	c7 44 24 04 1f a6 04 	movl   $0x804a61f,0x4(%esp)
 804a097:	08 
 804a098:	c7 04 24 c0 c6 04 08 	movl   $0x804c6c0,(%esp)
 804a09f:	e8 bc ea ff ff       	call   8048b60 <_ZStlsISt11char_traitsIcEERSt13basic_ostreamIcT_ES5_PKc@plt>
 804a0a4:	89 5c 24 04          	mov    %ebx,0x4(%esp)
 804a0a8:	89 04 24             	mov    %eax,(%esp)
 804a0ab:	e8 b0 ea ff ff       	call   8048b60 <_ZStlsISt11char_traitsIcEERSt13basic_ostreamIcT_ES5_PKc@plt>
 804a0b0:	c7 44 24 04 50 8c 04 	movl   $0x8048c50,0x4(%esp)
 804a0b7:	08 
 804a0b8:	89 04 24             	mov    %eax,(%esp)
 804a0bb:	e8 60 eb ff ff       	call   8048c20 <_ZNSolsEPFRSoS_E@plt>
 804a0c0:	8b 44 24 18          	mov    0x18(%esp),%eax
 804a0c4:	89 44 24 04          	mov    %eax,0x4(%esp)
 804a0c8:	8b 44 24 1c          	mov    0x1c(%esp),%eax
 804a0cc:	89 04 24             	mov    %eax,(%esp)
 804a0cf:	e8 0c ed ff ff       	call   8048de0 <_ZNK7Element6largerEPS_>
 804a0d4:	84 c0                	test   %al,%al
 804a0d6:	74 07                	je     804a0df <main+0x2c3>
 804a0d8:	bb 2b a6 04 08       	mov    $0x804a62b,%ebx
 804a0dd:	eb 05                	jmp    804a0e4 <main+0x2c8>
 804a0df:	bb 35 a6 04 08       	mov    $0x804a635,%ebx
 804a0e4:	8b 44 24 1c          	mov    0x1c(%esp),%eax
 804a0e8:	89 04 24             	mov    %eax,(%esp)
 804a0eb:	e8 c2 ec ff ff       	call   8048db2 <_ZNK7Element8get_sizeEv>
 804a0f0:	89 c6                	mov    %eax,%esi
 804a0f2:	c7 44 24 04 36 a6 04 	movl   $0x804a636,0x4(%esp)
 804a0f9:	08 
 804a0fa:	c7 04 24 c0 c6 04 08 	movl   $0x804c6c0,(%esp)
 804a101:	e8 5a ea ff ff       	call   8048b60 <_ZStlsISt11char_traitsIcEERSt13basic_ostreamIcT_ES5_PKc@plt>
 804a106:	89 74 24 04          	mov    %esi,0x4(%esp)
 804a10a:	89 04 24             	mov    %eax,(%esp)
 804a10d:	e8 9e ea ff ff       	call   8048bb0 <_ZNSolsEj@plt>
 804a112:	89 5c 24 04          	mov    %ebx,0x4(%esp)
 804a116:	89 04 24             	mov    %eax,(%esp)
 804a119:	e8 42 ea ff ff       	call   8048b60 <_ZStlsISt11char_traitsIcEERSt13basic_ostreamIcT_ES5_PKc@plt>
 804a11e:	c7 44 24 04 50 8c 04 	movl   $0x8048c50,0x4(%esp)
 804a125:	08 
 804a126:	89 04 24             	mov    %eax,(%esp)
 804a129:	e8 f2 ea ff ff       	call   8048c20 <_ZNSolsEPFRSoS_E@plt>
 804a12e:	8b 44 24 18          	mov    0x18(%esp),%eax
 804a132:	89 44 24 04          	mov    %eax,0x4(%esp)
 804a136:	8b 44 24 1c          	mov    0x1c(%esp),%eax
 804a13a:	89 04 24             	mov    %eax,(%esp)
 804a13d:	e8 c4 ec ff ff       	call   8048e06 <_ZNK7Element5newerEPS_>
 804a142:	84 c0                	test   %al,%al
 804a144:	74 07                	je     804a14d <main+0x331>
 804a146:	bb 42 a6 04 08       	mov    $0x804a642,%ebx
 804a14b:	eb 05                	jmp    804a152 <main+0x336>
 804a14d:	bb 35 a6 04 08       	mov    $0x804a635,%ebx
 804a152:	8b 44 24 1c          	mov    0x1c(%esp),%eax
 804a156:	89 04 24             	mov    %eax,(%esp)
 804a159:	e8 62 ec ff ff       	call   8048dc0 <_ZNK7Element8get_dateEv>
 804a15e:	89 c6                	mov    %eax,%esi
 804a160:	c7 44 24 04 4b a6 04 	movl   $0x804a64b,0x4(%esp)
 804a167:	08 
 804a168:	c7 04 24 c0 c6 04 08 	movl   $0x804c6c0,(%esp)
 804a16f:	e8 ec e9 ff ff       	call   8048b60 <_ZStlsISt11char_traitsIcEERSt13basic_ostreamIcT_ES5_PKc@plt>
 804a174:	89 74 24 04          	mov    %esi,0x4(%esp)
 804a178:	89 04 24             	mov    %eax,(%esp)
 804a17b:	e8 30 ea ff ff       	call   8048bb0 <_ZNSolsEj@plt>
 804a180:	89 5c 24 04          	mov    %ebx,0x4(%esp)
 804a184:	89 04 24             	mov    %eax,(%esp)
 804a187:	e8 d4 e9 ff ff       	call   8048b60 <_ZStlsISt11char_traitsIcEERSt13basic_ostreamIcT_ES5_PKc@plt>
 804a18c:	c7 44 24 04 50 8c 04 	movl   $0x8048c50,0x4(%esp)
 804a193:	08 
 804a194:	89 04 24             	mov    %eax,(%esp)
 804a197:	e8 84 ea ff ff       	call   8048c20 <_ZNSolsEPFRSoS_E@plt>
 804a19c:	c7 44 24 04 50 8c 04 	movl   $0x8048c50,0x4(%esp)
 804a1a3:	08 
 804a1a4:	c7 04 24 c0 c6 04 08 	movl   $0x804c6c0,(%esp)
 804a1ab:	e8 70 ea ff ff       	call   8048c20 <_ZNSolsEPFRSoS_E@plt>
 804a1b0:	c7 44 24 04 57 a6 04 	movl   $0x804a657,0x4(%esp)
 804a1b7:	08 
 804a1b8:	c7 04 24 c0 c6 04 08 	movl   $0x804c6c0,(%esp)
 804a1bf:	e8 9c e9 ff ff       	call   8048b60 <_ZStlsISt11char_traitsIcEERSt13basic_ostreamIcT_ES5_PKc@plt>
 804a1c4:	c7 44 24 04 50 8c 04 	movl   $0x8048c50,0x4(%esp)
 804a1cb:	08 
 804a1cc:	89 04 24             	mov    %eax,(%esp)
 804a1cf:	e8 4c ea ff ff       	call   8048c20 <_ZNSolsEPFRSoS_E@plt>
 804a1d4:	8b 44 24 18          	mov    0x18(%esp),%eax
 804a1d8:	89 04 24             	mov    %eax,(%esp)
 804a1db:	e8 bc eb ff ff       	call   8048d9c <_ZNK7Element8get_nameEv>
 804a1e0:	89 c3                	mov    %eax,%ebx
 804a1e2:	c7 44 24 04 13 a6 04 	movl   $0x804a613,0x4(%esp)
 804a1e9:	08 
 804a1ea:	c7 04 24 c0 c6 04 08 	movl   $0x804c6c0,(%esp)
 804a1f1:	e8 6a e9 ff ff       	call   8048b60 <_ZStlsISt11char_traitsIcEERSt13basic_ostreamIcT_ES5_PKc@plt>
 804a1f6:	89 5c 24 04          	mov    %ebx,0x4(%esp)
 804a1fa:	89 04 24             	mov    %eax,(%esp)
 804a1fd:	e8 5e e9 ff ff       	call   8048b60 <_ZStlsISt11char_traitsIcEERSt13basic_ostreamIcT_ES5_PKc@plt>
 804a202:	c7 44 24 04 50 8c 04 	movl   $0x8048c50,0x4(%esp)
 804a209:	08 
 804a20a:	89 04 24             	mov    %eax,(%esp)
 804a20d:	e8 0e ea ff ff       	call   8048c20 <_ZNSolsEPFRSoS_E@plt>
 804a212:	8b 44 24 18          	mov    0x18(%esp),%eax
 804a216:	8b 00                	mov    (%eax),%eax
 804a218:	83 c0 04             	add    $0x4,%eax
 804a21b:	8b 00                	mov    (%eax),%eax
 804a21d:	8b 54 24 18          	mov    0x18(%esp),%edx
 804a221:	89 14 24             	mov    %edx,(%esp)
 804a224:	ff d0                	call   *%eax
 804a226:	89 c3                	mov    %eax,%ebx
 804a228:	c7 44 24 04 1f a6 04 	movl   $0x804a61f,0x4(%esp)
 804a22f:	08 
 804a230:	c7 04 24 c0 c6 04 08 	movl   $0x804c6c0,(%esp)
 804a237:	e8 24 e9 ff ff       	call   8048b60 <_ZStlsISt11char_traitsIcEERSt13basic_ostreamIcT_ES5_PKc@plt>
 804a23c:	89 5c 24 04          	mov    %ebx,0x4(%esp)
 804a240:	89 04 24             	mov    %eax,(%esp)
 804a243:	e8 18 e9 ff ff       	call   8048b60 <_ZStlsISt11char_traitsIcEERSt13basic_ostreamIcT_ES5_PKc@plt>
 804a248:	c7 44 24 04 50 8c 04 	movl   $0x8048c50,0x4(%esp)
 804a24f:	08 
 804a250:	89 04 24             	mov    %eax,(%esp)
 804a253:	e8 c8 e9 ff ff       	call   8048c20 <_ZNSolsEPFRSoS_E@plt>
 804a258:	8b 44 24 1c          	mov    0x1c(%esp),%eax
 804a25c:	89 44 24 04          	mov    %eax,0x4(%esp)
 804a260:	8b 44 24 18          	mov    0x18(%esp),%eax
 804a264:	89 04 24             	mov    %eax,(%esp)
 804a267:	e8 74 eb ff ff       	call   8048de0 <_ZNK7Element6largerEPS_>
 804a26c:	84 c0                	test   %al,%al
 804a26e:	74 07                	je     804a277 <main+0x45b>
 804a270:	bb 2b a6 04 08       	mov    $0x804a62b,%ebx
 804a275:	eb 05                	jmp    804a27c <main+0x460>
 804a277:	bb 35 a6 04 08       	mov    $0x804a635,%ebx
 804a27c:	8b 44 24 18          	mov    0x18(%esp),%eax
 804a280:	89 04 24             	mov    %eax,(%esp)
 804a283:	e8 2a eb ff ff       	call   8048db2 <_ZNK7Element8get_sizeEv>
 804a288:	89 c6                	mov    %eax,%esi
 804a28a:	c7 44 24 04 36 a6 04 	movl   $0x804a636,0x4(%esp)
 804a291:	08 
 804a292:	c7 04 24 c0 c6 04 08 	movl   $0x804c6c0,(%esp)
 804a299:	e8 c2 e8 ff ff       	call   8048b60 <_ZStlsISt11char_traitsIcEERSt13basic_ostreamIcT_ES5_PKc@plt>
 804a29e:	89 74 24 04          	mov    %esi,0x4(%esp)
 804a2a2:	89 04 24             	mov    %eax,(%esp)
 804a2a5:	e8 06 e9 ff ff       	call   8048bb0 <_ZNSolsEj@plt>
 804a2aa:	89 5c 24 04          	mov    %ebx,0x4(%esp)
 804a2ae:	89 04 24             	mov    %eax,(%esp)
 804a2b1:	e8 aa e8 ff ff       	call   8048b60 <_ZStlsISt11char_traitsIcEERSt13basic_ostreamIcT_ES5_PKc@plt>
 804a2b6:	c7 44 24 04 50 8c 04 	movl   $0x8048c50,0x4(%esp)
 804a2bd:	08 
 804a2be:	89 04 24             	mov    %eax,(%esp)
 804a2c1:	e8 5a e9 ff ff       	call   8048c20 <_ZNSolsEPFRSoS_E@plt>
 804a2c6:	8b 44 24 1c          	mov    0x1c(%esp),%eax
 804a2ca:	89 44 24 04          	mov    %eax,0x4(%esp)
 804a2ce:	8b 44 24 18          	mov    0x18(%esp),%eax
 804a2d2:	89 04 24             	mov    %eax,(%esp)
 804a2d5:	e8 2c eb ff ff       	call   8048e06 <_ZNK7Element5newerEPS_>
 804a2da:	84 c0                	test   %al,%al
 804a2dc:	74 07                	je     804a2e5 <main+0x4c9>
 804a2de:	bb 42 a6 04 08       	mov    $0x804a642,%ebx
 804a2e3:	eb 05                	jmp    804a2ea <main+0x4ce>
 804a2e5:	bb 35 a6 04 08       	mov    $0x804a635,%ebx
 804a2ea:	8b 44 24 18          	mov    0x18(%esp),%eax
 804a2ee:	89 04 24             	mov    %eax,(%esp)
 804a2f1:	e8 ca ea ff ff       	call   8048dc0 <_ZNK7Element8get_dateEv>
 804a2f6:	89 c6                	mov    %eax,%esi
 804a2f8:	c7 44 24 04 4b a6 04 	movl   $0x804a64b,0x4(%esp)
 804a2ff:	08 
 804a300:	c7 04 24 c0 c6 04 08 	movl   $0x804c6c0,(%esp)
 804a307:	e8 54 e8 ff ff       	call   8048b60 <_ZStlsISt11char_traitsIcEERSt13basic_ostreamIcT_ES5_PKc@plt>
 804a30c:	89 74 24 04          	mov    %esi,0x4(%esp)
 804a310:	89 04 24             	mov    %eax,(%esp)
 804a313:	e8 98 e8 ff ff       	call   8048bb0 <_ZNSolsEj@plt>
 804a318:	89 5c 24 04          	mov    %ebx,0x4(%esp)
 804a31c:	89 04 24             	mov    %eax,(%esp)
 804a31f:	e8 3c e8 ff ff       	call   8048b60 <_ZStlsISt11char_traitsIcEERSt13basic_ostreamIcT_ES5_PKc@plt>
 804a324:	c7 44 24 04 50 8c 04 	movl   $0x8048c50,0x4(%esp)
 804a32b:	08 
 804a32c:	89 04 24             	mov    %eax,(%esp)
 804a32f:	e8 ec e8 ff ff       	call   8048c20 <_ZNSolsEPFRSoS_E@plt>
 804a334:	83 7c 24 1c 00       	cmpl   $0x0,0x1c(%esp)
 804a339:	74 14                	je     804a34f <main+0x533>
 804a33b:	8b 44 24 1c          	mov    0x1c(%esp),%eax
 804a33f:	8b 00                	mov    (%eax),%eax
 804a341:	83 c0 0c             	add    $0xc,%eax
 804a344:	8b 00                	mov    (%eax),%eax
 804a346:	8b 54 24 1c          	mov    0x1c(%esp),%edx
 804a34a:	89 14 24             	mov    %edx,(%esp)
 804a34d:	ff d0                	call   *%eax
 804a34f:	83 7c 24 18 00       	cmpl   $0x0,0x18(%esp)
 804a354:	74 14                	je     804a36a <main+0x54e>
 804a356:	8b 44 24 18          	mov    0x18(%esp),%eax
 804a35a:	8b 00                	mov    (%eax),%eax
 804a35c:	83 c0 0c             	add    $0xc,%eax
 804a35f:	8b 00                	mov    (%eax),%eax
 804a361:	8b 54 24 18          	mov    0x18(%esp),%edx
 804a365:	89 14 24             	mov    %edx,(%esp)
 804a368:	ff d0                	call   *%eax
 804a36a:	b8 00 00 00 00       	mov    $0x0,%eax
 804a36f:	eb 50                	jmp    804a3c1 <main+0x5a5>
 804a371:	89 c6                	mov    %eax,%esi
 804a373:	89 1c 24             	mov    %ebx,(%esp)
 804a376:	e8 95 e7 ff ff       	call   8048b10 <_ZdlPv@plt>
 804a37b:	89 f0                	mov    %esi,%eax
 804a37d:	89 04 24             	mov    %eax,(%esp)
 804a380:	e8 0b e9 ff ff       	call   8048c90 <_Unwind_Resume@plt>
 804a385:	89 c6                	mov    %eax,%esi
 804a387:	89 1c 24             	mov    %ebx,(%esp)
 804a38a:	e8 81 e7 ff ff       	call   8048b10 <_ZdlPv@plt>
 804a38f:	89 f0                	mov    %esi,%eax
 804a391:	89 04 24             	mov    %eax,(%esp)
 804a394:	e8 f7 e8 ff ff       	call   8048c90 <_Unwind_Resume@plt>
 804a399:	89 c6                	mov    %eax,%esi
 804a39b:	89 1c 24             	mov    %ebx,(%esp)
 804a39e:	e8 6d e7 ff ff       	call   8048b10 <_ZdlPv@plt>
 804a3a3:	89 f0                	mov    %esi,%eax
 804a3a5:	89 04 24             	mov    %eax,(%esp)
 804a3a8:	e8 e3 e8 ff ff       	call   8048c90 <_Unwind_Resume@plt>
 804a3ad:	89 c6                	mov    %eax,%esi
 804a3af:	89 1c 24             	mov    %ebx,(%esp)
 804a3b2:	e8 59 e7 ff ff       	call   8048b10 <_ZdlPv@plt>
 804a3b7:	89 f0                	mov    %esi,%eax
 804a3b9:	89 04 24             	mov    %eax,(%esp)
 804a3bc:	e8 cf e8 ff ff       	call   8048c90 <_Unwind_Resume@plt>
 804a3c1:	8d 65 f8             	lea    -0x8(%ebp),%esp
 804a3c4:	5b                   	pop    %ebx
 804a3c5:	5e                   	pop    %esi
 804a3c6:	5d                   	pop    %ebp
 804a3c7:	c3                   	ret    

0804a3c8 <_Z41__static_initialization_and_destruction_0ii>:
 804a3c8:	55                   	push   %ebp
 804a3c9:	89 e5                	mov    %esp,%ebp
 804a3cb:	83 ec 18             	sub    $0x18,%esp
 804a3ce:	83 7d 08 01          	cmpl   $0x1,0x8(%ebp)
 804a3d2:	75 31                	jne    804a405 <_Z41__static_initialization_and_destruction_0ii+0x3d>
 804a3d4:	81 7d 0c ff ff 00 00 	cmpl   $0xffff,0xc(%ebp)
 804a3db:	75 28                	jne    804a405 <_Z41__static_initialization_and_destruction_0ii+0x3d>
 804a3dd:	c7 04 24 90 c7 04 08 	movl   $0x804c790,(%esp)
 804a3e4:	e8 47 e7 ff ff       	call   8048b30 <_ZNSt8ios_base4InitC1Ev@plt>
 804a3e9:	c7 44 24 08 70 c6 04 	movl   $0x804c670,0x8(%esp)
 804a3f0:	08 
 804a3f1:	c7 44 24 04 90 c7 04 	movl   $0x804c790,0x4(%esp)
 804a3f8:	08 
 804a3f9:	c7 04 24 50 8b 04 08 	movl   $0x8048b50,(%esp)
 804a400:	e8 db e6 ff ff       	call   8048ae0 <__cxa_atexit@plt>
 804a405:	c9                   	leave  
 804a406:	c3                   	ret    

0804a407 <_GLOBAL__sub_I_main>:
 804a407:	55                   	push   %ebp
 804a408:	89 e5                	mov    %esp,%ebp
 804a40a:	83 ec 18             	sub    $0x18,%esp
 804a40d:	c7 44 24 04 ff ff 00 	movl   $0xffff,0x4(%esp)
 804a414:	00 
 804a415:	c7 04 24 01 00 00 00 	movl   $0x1,(%esp)
 804a41c:	e8 a7 ff ff ff       	call   804a3c8 <_Z41__static_initialization_and_destruction_0ii>
 804a421:	c9                   	leave  
 804a422:	c3                   	ret    
 804a423:	90                   	nop
 804a424:	90                   	nop
 804a425:	90                   	nop
 804a426:	90                   	nop
 804a427:	90                   	nop
 804a428:	90                   	nop
 804a429:	90                   	nop
 804a42a:	90                   	nop
 804a42b:	90                   	nop
 804a42c:	90                   	nop
 804a42d:	90                   	nop
 804a42e:	90                   	nop
 804a42f:	90                   	nop

0804a430 <__libc_csu_fini>:
 804a430:	55                   	push   %ebp
 804a431:	89 e5                	mov    %esp,%ebp
 804a433:	5d                   	pop    %ebp
 804a434:	c3                   	ret    
 804a435:	8d 74 26 00          	lea    0x0(%esi,%eiz,1),%esi
 804a439:	8d bc 27 00 00 00 00 	lea    0x0(%edi,%eiz,1),%edi

0804a440 <__libc_csu_init>:
 804a440:	55                   	push   %ebp
 804a441:	89 e5                	mov    %esp,%ebp
 804a443:	57                   	push   %edi
 804a444:	56                   	push   %esi
 804a445:	53                   	push   %ebx
 804a446:	e8 4f 00 00 00       	call   804a49a <__i686.get_pc_thunk.bx>
 804a44b:	81 c3 99 21 00 00    	add    $0x2199,%ebx
 804a451:	83 ec 1c             	sub    $0x1c,%esp
 804a454:	e8 2b e6 ff ff       	call   8048a84 <_init>
 804a459:	8d bb ec fe ff ff    	lea    -0x114(%ebx),%edi
 804a45f:	8d 83 e4 fe ff ff    	lea    -0x11c(%ebx),%eax
 804a465:	29 c7                	sub    %eax,%edi
 804a467:	c1 ff 02             	sar    $0x2,%edi
 804a46a:	85 ff                	test   %edi,%edi
 804a46c:	74 24                	je     804a492 <__libc_csu_init+0x52>
 804a46e:	31 f6                	xor    %esi,%esi
 804a470:	8b 45 10             	mov    0x10(%ebp),%eax
 804a473:	89 44 24 08          	mov    %eax,0x8(%esp)
 804a477:	8b 45 0c             	mov    0xc(%ebp),%eax
 804a47a:	89 44 24 04          	mov    %eax,0x4(%esp)
 804a47e:	8b 45 08             	mov    0x8(%ebp),%eax
 804a481:	89 04 24             	mov    %eax,(%esp)
 804a484:	ff 94 b3 e4 fe ff ff 	call   *-0x11c(%ebx,%esi,4)
 804a48b:	83 c6 01             	add    $0x1,%esi
 804a48e:	39 fe                	cmp    %edi,%esi
 804a490:	72 de                	jb     804a470 <__libc_csu_init+0x30>
 804a492:	83 c4 1c             	add    $0x1c,%esp
 804a495:	5b                   	pop    %ebx
 804a496:	5e                   	pop    %esi
 804a497:	5f                   	pop    %edi
 804a498:	5d                   	pop    %ebp
 804a499:	c3                   	ret    

0804a49a <__i686.get_pc_thunk.bx>:
 804a49a:	8b 1c 24             	mov    (%esp),%ebx
 804a49d:	c3                   	ret    
 804a49e:	90                   	nop
 804a49f:	90                   	nop

0804a4a0 <__stat>:
 804a4a0:	55                   	push   %ebp
 804a4a1:	89 e5                	mov    %esp,%ebp
 804a4a3:	53                   	push   %ebx
 804a4a4:	83 ec 0c             	sub    $0xc,%esp
 804a4a7:	8b 45 0c             	mov    0xc(%ebp),%eax
 804a4aa:	e8 eb ff ff ff       	call   804a49a <__i686.get_pc_thunk.bx>
 804a4af:	81 c3 35 21 00 00    	add    $0x2135,%ebx
 804a4b5:	c7 04 24 03 00 00 00 	movl   $0x3,(%esp)
 804a4bc:	89 44 24 08          	mov    %eax,0x8(%esp)
 804a4c0:	8b 45 08             	mov    0x8(%ebp),%eax
 804a4c3:	89 44 24 04          	mov    %eax,0x4(%esp)
 804a4c7:	e8 24 e6 ff ff       	call   8048af0 <__xstat@plt>
 804a4cc:	83 c4 0c             	add    $0xc,%esp
 804a4cf:	5b                   	pop    %ebx
 804a4d0:	5d                   	pop    %ebp
 804a4d1:	c3                   	ret    
 804a4d2:	90                   	nop
 804a4d3:	90                   	nop

Déassemblage de la section .fini:

0804a4d4 <_fini>:
 804a4d4:	55                   	push   %ebp
 804a4d5:	89 e5                	mov    %esp,%ebp
 804a4d7:	53                   	push   %ebx
 804a4d8:	83 ec 04             	sub    $0x4,%esp
 804a4db:	e8 00 00 00 00       	call   804a4e0 <_fini+0xc>
 804a4e0:	5b                   	pop    %ebx
 804a4e1:	81 c3 04 21 00 00    	add    $0x2104,%ebx
 804a4e7:	59                   	pop    %ecx
 804a4e8:	5b                   	pop    %ebx
 804a4e9:	c9                   	leave  
 804a4ea:	c3                   	ret    
